

Microchip Technology PIC LITE Macro Assembler V1.33 build 59893 
                                                                                               Mon Mar 02 16:40:18 2015

Microchip Technology Omniscient Code Generator (Lite mode) build 59893
     1                           	processor	16F1454
     2                           	opt	pw 120
     3                           	opt	lm
     4                           	psect	idataBANK0,global,class=CODE,delta=2
     5                           	psect	cinit,global,class=CODE,merge=1,delta=2
     6                           	psect	bssBANK0,global,class=BANK0,space=1,delta=1
     7                           	psect	dataBANK0,global,class=BANK0,space=1,delta=1
     8                           	psect	inittext,global,class=CODE,delta=2
     9                           	psect	cstackCOMMON,global,class=COMMON,space=1,delta=1
    10                           	psect	cstackBANK0,global,class=BANK0,space=1,delta=1
    11                           	psect	maintext,global,class=CODE,merge=1,split=1,delta=2
    12                           	psect	text1,local,class=CODE,merge=1,delta=2
    13                           	psect	text2,local,class=CODE,merge=1,delta=2
    14                           	psect	text3,local,class=CODE,merge=1,delta=2
    15                           	psect	text4,local,class=CODE,merge=1,delta=2
    16                           	psect	text5,local,class=CODE,merge=1,delta=2
    17                           	psect	text6,local,class=CODE,merge=1,delta=2
    18                           	psect	text7,local,class=CODE,merge=1,delta=2
    19                           	psect	text8,local,class=CODE,merge=1,delta=2
    20                           	psect	text9,local,class=CODE,merge=1,delta=2
    21                           	dabs	1,0x7E,2
    22  0000                     	;# 
    23  0001                     	;# 
    24  0002                     	;# 
    25  0003                     	;# 
    26  0004                     	;# 
    27  0005                     	;# 
    28  0006                     	;# 
    29  0007                     	;# 
    30  0008                     	;# 
    31  0009                     	;# 
    32  000A                     	;# 
    33  000B                     	;# 
    34  000C                     	;# 
    35  000E                     	;# 
    36  0011                     	;# 
    37  0012                     	;# 
    38  0015                     	;# 
    39  0016                     	;# 
    40  0016                     	;# 
    41  0017                     	;# 
    42  0018                     	;# 
    43  0019                     	;# 
    44  001A                     	;# 
    45  001B                     	;# 
    46  001C                     	;# 
    47  008C                     	;# 
    48  008E                     	;# 
    49  0091                     	;# 
    50  0092                     	;# 
    51  0095                     	;# 
    52  0096                     	;# 
    53  0097                     	;# 
    54  0098                     	;# 
    55  0099                     	;# 
    56  009A                     	;# 
    57  010C                     	;# 
    58  010E                     	;# 
    59  0116                     	;# 
    60  0117                     	;# 
    61  011D                     	;# 
    62  018C                     	;# 
    63  018E                     	;# 
    64  0191                     	;# 
    65  0191                     	;# 
    66  0192                     	;# 
    67  0193                     	;# 
    68  0193                     	;# 
    69  0194                     	;# 
    70  0195                     	;# 
    71  0196                     	;# 
    72  0197                     	;# 
    73  0199                     	;# 
    74  019A                     	;# 
    75  019B                     	;# 
    76  019B                     	;# 
    77  019C                     	;# 
    78  019D                     	;# 
    79  019E                     	;# 
    80  019F                     	;# 
    81  020C                     	;# 
    82  0211                     	;# 
    83  0211                     	;# 
    84  0212                     	;# 
    85  0212                     	;# 
    86  0213                     	;# 
    87  0213                     	;# 
    88  0214                     	;# 
    89  0214                     	;# 
    90  0215                     	;# 
    91  0215                     	;# 
    92  0215                     	;# 
    93  0216                     	;# 
    94  0216                     	;# 
    95  0217                     	;# 
    96  0217                     	;# 
    97  0391                     	;# 
    98  0392                     	;# 
    99  0393                     	;# 
   100  039A                     	;# 
   101  039B                     	;# 
   102  0611                     	;# 
   103  0612                     	;# 
   104  0613                     	;# 
   105  0613                     	;# 
   106  0614                     	;# 
   107  0615                     	;# 
   108  0616                     	;# 
   109  0616                     	;# 
   110  0E8E                     	;# 
   111  0E8F                     	;# 
   112  0E90                     	;# 
   113  0E91                     	;# 
   114  0E92                     	;# 
   115  0E93                     	;# 
   116  0E94                     	;# 
   117  0E94                     	;# 
   118  0E95                     	;# 
   119  0E96                     	;# 
   120  0E97                     	;# 
   121  0E98                     	;# 
   122  0E99                     	;# 
   123  0E9A                     	;# 
   124  0E9B                     	;# 
   125  0E9C                     	;# 
   126  0E9D                     	;# 
   127  0E9E                     	;# 
   128  0E9F                     	;# 
   129  0FE4                     	;# 
   130  0FE5                     	;# 
   131  0FE6                     	;# 
   132  0FE7                     	;# 
   133  0FE8                     	;# 
   134  0FE9                     	;# 
   135  0FEA                     	;# 
   136  0FEB                     	;# 
   137  0FED                     	;# 
   138  0FEE                     	;# 
   139  0FEF                     	;# 
   140  0000                     	;# 
   141  0001                     	;# 
   142  0002                     	;# 
   143  0003                     	;# 
   144  0004                     	;# 
   145  0005                     	;# 
   146  0006                     	;# 
   147  0007                     	;# 
   148  0008                     	;# 
   149  0009                     	;# 
   150  000A                     	;# 
   151  000B                     	;# 
   152  000C                     	;# 
   153  000E                     	;# 
   154  0011                     	;# 
   155  0012                     	;# 
   156  0015                     	;# 
   157  0016                     	;# 
   158  0016                     	;# 
   159  0017                     	;# 
   160  0018                     	;# 
   161  0019                     	;# 
   162  001A                     	;# 
   163  001B                     	;# 
   164  001C                     	;# 
   165  008C                     	;# 
   166  008E                     	;# 
   167  0091                     	;# 
   168  0092                     	;# 
   169  0095                     	;# 
   170  0096                     	;# 
   171  0097                     	;# 
   172  0098                     	;# 
   173  0099                     	;# 
   174  009A                     	;# 
   175  010C                     	;# 
   176  010E                     	;# 
   177  0116                     	;# 
   178  0117                     	;# 
   179  011D                     	;# 
   180  018C                     	;# 
   181  018E                     	;# 
   182  0191                     	;# 
   183  0191                     	;# 
   184  0192                     	;# 
   185  0193                     	;# 
   186  0193                     	;# 
   187  0194                     	;# 
   188  0195                     	;# 
   189  0196                     	;# 
   190  0197                     	;# 
   191  0199                     	;# 
   192  019A                     	;# 
   193  019B                     	;# 
   194  019B                     	;# 
   195  019C                     	;# 
   196  019D                     	;# 
   197  019E                     	;# 
   198  019F                     	;# 
   199  020C                     	;# 
   200  0211                     	;# 
   201  0211                     	;# 
   202  0212                     	;# 
   203  0212                     	;# 
   204  0213                     	;# 
   205  0213                     	;# 
   206  0214                     	;# 
   207  0214                     	;# 
   208  0215                     	;# 
   209  0215                     	;# 
   210  0215                     	;# 
   211  0216                     	;# 
   212  0216                     	;# 
   213  0217                     	;# 
   214  0217                     	;# 
   215  0391                     	;# 
   216  0392                     	;# 
   217  0393                     	;# 
   218  039A                     	;# 
   219  039B                     	;# 
   220  0611                     	;# 
   221  0612                     	;# 
   222  0613                     	;# 
   223  0613                     	;# 
   224  0614                     	;# 
   225  0615                     	;# 
   226  0616                     	;# 
   227  0616                     	;# 
   228  0E8E                     	;# 
   229  0E8F                     	;# 
   230  0E90                     	;# 
   231  0E91                     	;# 
   232  0E92                     	;# 
   233  0E93                     	;# 
   234  0E94                     	;# 
   235  0E94                     	;# 
   236  0E95                     	;# 
   237  0E96                     	;# 
   238  0E97                     	;# 
   239  0E98                     	;# 
   240  0E99                     	;# 
   241  0E9A                     	;# 
   242  0E9B                     	;# 
   243  0E9C                     	;# 
   244  0E9D                     	;# 
   245  0E9E                     	;# 
   246  0E9F                     	;# 
   247  0FE4                     	;# 
   248  0FE5                     	;# 
   249  0FE6                     	;# 
   250  0FE7                     	;# 
   251  0FE8                     	;# 
   252  0FE9                     	;# 
   253  0FEA                     	;# 
   254  0FEB                     	;# 
   255  0FED                     	;# 
   256  0FEE                     	;# 
   257  0FEF                     	;# 
   258  0000                     	;# 
   259  0001                     	;# 
   260  0002                     	;# 
   261  0003                     	;# 
   262  0004                     	;# 
   263  0005                     	;# 
   264  0006                     	;# 
   265  0007                     	;# 
   266  0008                     	;# 
   267  0009                     	;# 
   268  000A                     	;# 
   269  000B                     	;# 
   270  000C                     	;# 
   271  000E                     	;# 
   272  0011                     	;# 
   273  0012                     	;# 
   274  0015                     	;# 
   275  0016                     	;# 
   276  0016                     	;# 
   277  0017                     	;# 
   278  0018                     	;# 
   279  0019                     	;# 
   280  001A                     	;# 
   281  001B                     	;# 
   282  001C                     	;# 
   283  008C                     	;# 
   284  008E                     	;# 
   285  0091                     	;# 
   286  0092                     	;# 
   287  0095                     	;# 
   288  0096                     	;# 
   289  0097                     	;# 
   290  0098                     	;# 
   291  0099                     	;# 
   292  009A                     	;# 
   293  010C                     	;# 
   294  010E                     	;# 
   295  0116                     	;# 
   296  0117                     	;# 
   297  011D                     	;# 
   298  018C                     	;# 
   299  018E                     	;# 
   300  0191                     	;# 
   301  0191                     	;# 
   302  0192                     	;# 
   303  0193                     	;# 
   304  0193                     	;# 
   305  0194                     	;# 
   306  0195                     	;# 
   307  0196                     	;# 
   308  0197                     	;# 
   309  0199                     	;# 
   310  019A                     	;# 
   311  019B                     	;# 
   312  019B                     	;# 
   313  019C                     	;# 
   314  019D                     	;# 
   315  019E                     	;# 
   316  019F                     	;# 
   317  020C                     	;# 
   318  0211                     	;# 
   319  0211                     	;# 
   320  0212                     	;# 
   321  0212                     	;# 
   322  0213                     	;# 
   323  0213                     	;# 
   324  0214                     	;# 
   325  0214                     	;# 
   326  0215                     	;# 
   327  0215                     	;# 
   328  0215                     	;# 
   329  0216                     	;# 
   330  0216                     	;# 
   331  0217                     	;# 
   332  0217                     	;# 
   333  0391                     	;# 
   334  0392                     	;# 
   335  0393                     	;# 
   336  039A                     	;# 
   337  039B                     	;# 
   338  0611                     	;# 
   339  0612                     	;# 
   340  0613                     	;# 
   341  0613                     	;# 
   342  0614                     	;# 
   343  0615                     	;# 
   344  0616                     	;# 
   345  0616                     	;# 
   346  0E8E                     	;# 
   347  0E8F                     	;# 
   348  0E90                     	;# 
   349  0E91                     	;# 
   350  0E92                     	;# 
   351  0E93                     	;# 
   352  0E94                     	;# 
   353  0E94                     	;# 
   354  0E95                     	;# 
   355  0E96                     	;# 
   356  0E97                     	;# 
   357  0E98                     	;# 
   358  0E99                     	;# 
   359  0E9A                     	;# 
   360  0E9B                     	;# 
   361  0E9C                     	;# 
   362  0E9D                     	;# 
   363  0E9E                     	;# 
   364  0E9F                     	;# 
   365  0FE4                     	;# 
   366  0FE5                     	;# 
   367  0FE6                     	;# 
   368  0FE7                     	;# 
   369  0FE8                     	;# 
   370  0FE9                     	;# 
   371  0FEA                     	;# 
   372  0FEB                     	;# 
   373  0FED                     	;# 
   374  0FEE                     	;# 
   375  0FEF                     	;# 
   376  0000                     	;# 
   377  0001                     	;# 
   378  0002                     	;# 
   379  0003                     	;# 
   380  0004                     	;# 
   381  0005                     	;# 
   382  0006                     	;# 
   383  0007                     	;# 
   384  0008                     	;# 
   385  0009                     	;# 
   386  000A                     	;# 
   387  000B                     	;# 
   388  000C                     	;# 
   389  000E                     	;# 
   390  0011                     	;# 
   391  0012                     	;# 
   392  0015                     	;# 
   393  0016                     	;# 
   394  0016                     	;# 
   395  0017                     	;# 
   396  0018                     	;# 
   397  0019                     	;# 
   398  001A                     	;# 
   399  001B                     	;# 
   400  001C                     	;# 
   401  008C                     	;# 
   402  008E                     	;# 
   403  0091                     	;# 
   404  0092                     	;# 
   405  0095                     	;# 
   406  0096                     	;# 
   407  0097                     	;# 
   408  0098                     	;# 
   409  0099                     	;# 
   410  009A                     	;# 
   411  010C                     	;# 
   412  010E                     	;# 
   413  0116                     	;# 
   414  0117                     	;# 
   415  011D                     	;# 
   416  018C                     	;# 
   417  018E                     	;# 
   418  0191                     	;# 
   419  0191                     	;# 
   420  0192                     	;# 
   421  0193                     	;# 
   422  0193                     	;# 
   423  0194                     	;# 
   424  0195                     	;# 
   425  0196                     	;# 
   426  0197                     	;# 
   427  0199                     	;# 
   428  019A                     	;# 
   429  019B                     	;# 
   430  019B                     	;# 
   431  019C                     	;# 
   432  019D                     	;# 
   433  019E                     	;# 
   434  019F                     	;# 
   435  020C                     	;# 
   436  0211                     	;# 
   437  0211                     	;# 
   438  0212                     	;# 
   439  0212                     	;# 
   440  0213                     	;# 
   441  0213                     	;# 
   442  0214                     	;# 
   443  0214                     	;# 
   444  0215                     	;# 
   445  0215                     	;# 
   446  0215                     	;# 
   447  0216                     	;# 
   448  0216                     	;# 
   449  0217                     	;# 
   450  0217                     	;# 
   451  0391                     	;# 
   452  0392                     	;# 
   453  0393                     	;# 
   454  039A                     	;# 
   455  039B                     	;# 
   456  0611                     	;# 
   457  0612                     	;# 
   458  0613                     	;# 
   459  0613                     	;# 
   460  0614                     	;# 
   461  0615                     	;# 
   462  0616                     	;# 
   463  0616                     	;# 
   464  0E8E                     	;# 
   465  0E8F                     	;# 
   466  0E90                     	;# 
   467  0E91                     	;# 
   468  0E92                     	;# 
   469  0E93                     	;# 
   470  0E94                     	;# 
   471  0E94                     	;# 
   472  0E95                     	;# 
   473  0E96                     	;# 
   474  0E97                     	;# 
   475  0E98                     	;# 
   476  0E99                     	;# 
   477  0E9A                     	;# 
   478  0E9B                     	;# 
   479  0E9C                     	;# 
   480  0E9D                     	;# 
   481  0E9E                     	;# 
   482  0E9F                     	;# 
   483  0FE4                     	;# 
   484  0FE5                     	;# 
   485  0FE6                     	;# 
   486  0FE7                     	;# 
   487  0FE8                     	;# 
   488  0FE9                     	;# 
   489  0FEA                     	;# 
   490  0FEB                     	;# 
   491  0FED                     	;# 
   492  0FEE                     	;# 
   493  0FEF                     	;# 
   494                           
   495                           	psect	idataBANK0
   496  056B                     __pidataBANK0:	
   497                           
   498                           ;initializer for _mac
   499  056B  3454               	retlw	84
   500  056C  3400               	retlw	0
   501  056D  3452               	retlw	82
   502  056E  3400               	retlw	0
   503  056F  3400               	retlw	0
   504  0570  3400               	retlw	0
   505  0571  3400               	retlw	0
   506  0572  3400               	retlw	0
   507  0573  34F8               	retlw	248
   508  0574  3400               	retlw	0
   509  0575  3401               	retlw	1
   510  0576  3400               	retlw	0
   511                           
   512                           ;initializer for _ip
   513  0577  34A9               	retlw	169
   514  0578  3400               	retlw	0
   515  0579  3480               	retlw	128
   516  057A  3400               	retlw	0
   517  057B  3480               	retlw	128
   518  057C  3400               	retlw	0
   519  057D  3482               	retlw	130
   520  057E  3400               	retlw	0
   521                           
   522                           ;initializer for _source_ip
   523  057F  34A9               	retlw	169
   524  0580  3400               	retlw	0
   525  0581  3480               	retlw	128
   526  0582  3400               	retlw	0
   527  0583  3480               	retlw	128
   528  0584  3400               	retlw	0
   529  0585  3481               	retlw	129
   530  0586  3400               	retlw	0
   531                           
   532                           ;initializer for _subnet
   533  0587  34FF               	retlw	255
   534  0588  3400               	retlw	0
   535  0589  3400               	retlw	0
   536  058A  3400               	retlw	0
   537  058B  3400               	retlw	0
   538  058C  3400               	retlw	0
   539  058D  3400               	retlw	0
   540  058E  3400               	retlw	0
   541                           
   542                           ;initializer for _source_port
   543  058F  3413               	retlw	19
   544  0590  3400               	retlw	0
   545  0591  3488               	retlw	136
   546  0592  3400               	retlw	0
   547  0011                     _PIR1bits	set	17
   548  0099                     _OSCCONbits	set	153
   549  009A                     _OSCSTAT	set	154
   550  0098                     _OSCTUNEbits	set	152
   551  008C                     _TRISAbits	set	140
   552  008E                     _TRISCbits	set	142
   553  010E                     _LATCbits	set	270
   554  0211                     _SSPBUF	set	529
   555  0215                     _SSPCONbits	set	533
   556  0214                     _SSPSTATbits	set	532
   557                           
   558                           ; #config settings
   559  0000                     
   560                           	psect	cinit
   561  07E9                     start_initialization:	
   562  07E9                     __initialization:	
   563                           
   564                           ; Clear objects allocated to BANK0
   565  07E9  01D5               	clrf	__pbssBANK0& (0+127)
   566  07EA  01D6               	clrf	(__pbssBANK0+1)& (0+127)
   567  07EB  01D7               	clrf	(__pbssBANK0+2)& (0+127)
   568  07EC  01D8               	clrf	(__pbssBANK0+3)& (0+127)
   569  07ED  01D9               	clrf	(__pbssBANK0+4)& (0+127)
   570  07EE  01DA               	clrf	(__pbssBANK0+5)& (0+127)
   571  07EF  01DB               	clrf	(__pbssBANK0+6)& (0+127)
   572  07F0  01DC               	clrf	(__pbssBANK0+7)& (0+127)
   573                           
   574                           ; Initialize objects allocated to BANK0
   575  07F1  306B               	movlw	low __pidataBANK0
   576  07F2  0084               	movwf	4
   577  07F3  3085               	movlw	(high __pidataBANK0)| (0+128)
   578  07F4  0085               	movwf	5
   579  07F5  3020               	movlw	low __pdataBANK0
   580  07F6  0086               	movwf	6
   581  07F7  3000               	movlw	high __pdataBANK0
   582  07F8  0087               	movwf	7
   583  07F9  3028               	movlw	40
   584  07FA  3185  2509         	fcall	init_ram
   585  07FC                     end_of_initialization:	
   586                           ;End of C runtime variable initialization code
   587                           
   588  07FC                     __end_of__initialization:	
   589  07FC  107E               	bcf	pic14e$flags,0	;clear compiler interrupt flag
   590  07FD  0020               	movlb	0
   591  07FE  3185  2D4C         	ljmp	_main	;jump to C main() function
   592                           
   593                           	psect	bssBANK0
   594  0055                     __pbssBANK0:	
   595  0055                     _gateway:	
   596  0055                     	ds	8
   597                           
   598                           	psect	dataBANK0
   599  0020                     __pdataBANK0:	
   600  0020                     _mac:	
   601  0020                     	ds	12
   602  002C                     _ip:	
   603  002C                     	ds	8
   604  0034                     _source_ip:	
   605  0034                     	ds	8
   606  003C                     _subnet:	
   607  003C                     	ds	8
   608  0044                     _source_port:	
   609  0044                     	ds	4
   610                           
   611                           	psect	inittext
   612  0509                     init_ram:	
   613  0509  00FE               	movwf	126
   614  050A                     initloop:	
   615  050A  0012               	moviw fsr0++
   616  050B  001E               	movwi fsr1++
   617  050C  0BFE               	decfsz	126,f
   618  050D  2D0A               	goto	initloop
   619  050E  3400               	retlw	0
   620                           
   621                           	psect	cstackCOMMON
   622  0070                     __pcstackCOMMON:	
   623  0070                     ?_osc_config:	
   624  0070                     ??_osc_config:	
   625                           ; 0 bytes @ 0x0
   626                           
   627  0070                     ?_port_config:	
   628                           ; 0 bytes @ 0x0
   629                           
   630  0070                     ??_port_config:	
   631                           ; 0 bytes @ 0x0
   632                           
   633  0070                     ?_spi_config:	
   634                           ; 0 bytes @ 0x0
   635                           
   636  0070                     ??_spi_config:	
   637                           ; 0 bytes @ 0x0
   638                           
   639  0070                     ?_wiz_init:	
   640                           ; 0 bytes @ 0x0
   641                           
   642  0070                     ?_config:	
   643                           ; 0 bytes @ 0x0
   644                           
   645  0070                     ?_spi:	
   646                           ; 0 bytes @ 0x0
   647                           
   648  0070                     spi@mosi:	
   649                           ; 2 bytes @ 0x0
   650                           
   651                           
   652                           ; 2 bytes @ 0x0
   653  0070                     	ds	2
   654  0072                     ??_spi:	
   655                           
   656                           ; 0 bytes @ 0x2
   657  0072                     	ds	2
   658  0074                     spi@miso:	
   659                           
   660                           ; 2 bytes @ 0x4
   661  0074                     	ds	2
   662  0076                     ?_wiz_reg_write:	
   663  0076                     ?_wiz_write:	
   664                           ; 0 bytes @ 0x6
   665                           
   666  0076                     ?_wiz_reg_read:	
   667                           ; 0 bytes @ 0x6
   668                           
   669  0076                     wiz_reg_read@addr_hi:	
   670                           ; 2 bytes @ 0x6
   671                           
   672  0076                     wiz_reg_write@addr_hi:	
   673                           ; 2 bytes @ 0x6
   674                           
   675  0076                     wiz_write@addr_hi:	
   676                           ; 2 bytes @ 0x6
   677                           
   678                           
   679                           ; 2 bytes @ 0x6
   680  0076                     	ds	2
   681  0078                     wiz_reg_read@addr_lo:	
   682  0078                     wiz_reg_write@addr_lo:	
   683                           ; 2 bytes @ 0x8
   684                           
   685  0078                     wiz_write@addr_lo:	
   686                           ; 2 bytes @ 0x8
   687                           
   688                           
   689                           ; 2 bytes @ 0x8
   690  0078                     	ds	2
   691  007A                     ??_wiz_reg_read:	
   692  007A                     wiz_write@mosi:	
   693                           ; 0 bytes @ 0xA
   694                           
   695  007A                     wiz_reg_read@miso:	
   696                           ; 1 bytes @ 0xA
   697                           
   698  007A                     wiz_reg_write@mosi:	
   699                           ; 2 bytes @ 0xA
   700                           
   701                           
   702                           ; 2 bytes @ 0xA
   703  007A                     	ds	1
   704  007B                     wiz_write@length:	
   705                           
   706                           ; 2 bytes @ 0xB
   707  007B                     	ds	1
   708  007C                     ??_wiz_reg_write:	
   709                           
   710                           ; 0 bytes @ 0xC
   711  007C                     	ds	1
   712  007D                     ??_wiz_write:	
   713                           
   714                           ; 0 bytes @ 0xD
   715  007D                     	ds	1
   716  007E                     ??_config:	
   717                           
   718                           	psect	cstackBANK0
   719  0048                     __pcstackBANK0:	
   720                           ; 0 bytes @ 0xE
   721                           
   722  0048                     wiz_write@i:	
   723                           
   724                           ; 2 bytes @ 0x0
   725  0048                     	ds	2
   726  004A                     ??_wiz_init:	
   727                           
   728                           ; 0 bytes @ 0x2
   729  004A                     	ds	1
   730  004B                     wiz_init@i:	
   731                           
   732                           ; 2 bytes @ 0x3
   733  004B                     	ds	2
   734  004D                     wiz_init@sock:	
   735                           
   736                           ; 2 bytes @ 0x5
   737  004D                     	ds	2
   738  004F                     ?_main:	
   739  004F                     main@argc:	
   740                           ; 2 bytes @ 0x7
   741                           
   742                           
   743                           ; 2 bytes @ 0x7
   744  004F                     	ds	2
   745  0051                     main@argv:	
   746                           
   747                           ; 2 bytes @ 0x9
   748  0051                     	ds	2
   749  0053                     ??_main:	
   750                           
   751                           ; 0 bytes @ 0xB
   752  0053                     	ds	2
   753                           
   754                           	psect	maintext
   755  054C                     __pmaintext:	
   756 ;;
   757 ;;Main: autosize = 0, tempsize = 2, incstack = 0, save=0
   758 ;;
   759 ;; *************** function _main *****************
   760 ;; Defined at:
   761 ;;		line 58 in file "main.c"
   762 ;; Parameters:    Size  Location     Type
   763 ;;  argc            2    7[BANK0 ] int 
   764 ;;  argv            2    9[BANK0 ] PTR PTR unsigned char 
   765 ;; Auto vars:     Size  Location     Type
   766 ;;		None
   767 ;; Return value:  Size  Location     Type
   768 ;;                  2    7[BANK0 ] int 
   769 ;; Registers used:
   770 ;;		wreg, fsr1l, fsr1h, status,2, status,0, pclath, cstack
   771 ;; Tracked objects:
   772 ;;		On entry : 17F/0
   773 ;;		On exit  : 0/0
   774 ;;		Unchanged: 0/0
   775 ;; Data sizes:     COMMON   BANK0   BANK1   BANK2   BANK3   BANK4   BANK5   BANK6   BANK7   BANK8   BANK9  BANK10  BANK1
      +1  BANK12
   776 ;;      Params:         0       4       0       0       0       0       0       0       0       0       0       0       
      +0       0
   777 ;;      Locals:         0       0       0       0       0       0       0       0       0       0       0       0       
      +0       0
   778 ;;      Temps:          0       2       0       0       0       0       0       0       0       0       0       0       
      +0       0
   779 ;;      Totals:         0       6       0       0       0       0       0       0       0       0       0       0       
      +0       0
   780 ;;Total ram usage:        6 bytes
   781 ;; Hardware stack levels required when called:    4
   782 ;; This function calls:
   783 ;;		_config
   784 ;;		_spi
   785 ;; This function is called by:
   786 ;;		Startup code after reset
   787 ;; This function uses a non-reentrant model
   788 ;;
   789                           
   790                           
   791                           ;psect for function _main
   792  054C                     _main:	
   793                           
   794                           ;main.c: 60: config();
   795                           
   796                           ;incstack = 0
   797                           ; Regs used in _main: [wreg+fsr1l+fsr1h+status,2+status,0+pclath+cstack]
   798  054C  3185  252B  3185   	fcall	_config
   799  054F                     l742:	
   800                           ;main.c: 62: while (1) {
   801                           
   802                           
   803                           ;main.c: 63: spi(OSCSTAT);
   804  054F  0021               	movlb	1	; select bank1
   805  0550  081A               	movf	26,w	;volatile
   806  0551  0020               	movlb	0	; select bank0
   807  0552  00D3               	movwf	??_main
   808  0553  01D4               	clrf	??_main+1
   809  0554  0853               	movf	??_main,w
   810  0555  00F0               	movwf	spi@mosi
   811  0556  0854               	movf	??_main+1,w
   812  0557  00F1               	movwf	spi@mosi+1
   813  0558  3185  2537  3185   	fcall	_spi
   814                           
   815                           ;main.c: 64: _delay((unsigned long)((10)*(48000000/4000000.0)));
   816  055B  3027               	movlw	39
   817  055C  0020               	movlb	0	; select bank0
   818  055D  00D3               	movwf	??_main
   819  055E                     u157:	
   820  055E  0BD3               	decfsz	??_main,f
   821  055F  2D5E               	goto	u157
   822  0560  3200               	nop2	;nop
   823                           
   824                           ;main.c: 65: config();
   825  0561  3185  252B  3185   	fcall	_config
   826                           
   827                           ;main.c: 66: _delay((unsigned long)((10)*(48000000/4000000.0)));
   828  0564  3027               	movlw	39
   829  0565  0020               	movlb	0	; select bank0
   830  0566  00D3               	movwf	??_main
   831  0567                     u167:	
   832  0567  0BD3               	decfsz	??_main,f
   833  0568  2D67               	goto	u167
   834  0569  3200               	nop2	;nop
   835  056A  2D4F               	goto	l742
   836  056B                     __end_of_main:	
   837                           ;main.c: 67: }
   838                           ;main.c: 69: return (0);
   839                           ;	Return value of _main is never used
   840                           
   841                           
   842                           	psect	text1
   843  052B                     __ptext1:	
   844 ;; *************** function _config *****************
   845 ;; Defined at:
   846 ;;		line 47 in file "main.c"
   847 ;; Parameters:    Size  Location     Type
   848 ;;		None
   849 ;; Auto vars:     Size  Location     Type
   850 ;;		None
   851 ;; Return value:  Size  Location     Type
   852 ;;		None               void
   853 ;; Registers used:
   854 ;;		wreg, fsr1l, fsr1h, status,2, status,0, pclath, cstack
   855 ;; Tracked objects:
   856 ;;		On entry : 0/0
   857 ;;		On exit  : 0/0
   858 ;;		Unchanged: 0/0
   859 ;; Data sizes:     COMMON   BANK0   BANK1   BANK2   BANK3   BANK4   BANK5   BANK6   BANK7   BANK8   BANK9  BANK10  BANK1
      +1  BANK12
   860 ;;      Params:         0       0       0       0       0       0       0       0       0       0       0       0       
      +0       0
   861 ;;      Locals:         0       0       0       0       0       0       0       0       0       0       0       0       
      +0       0
   862 ;;      Temps:          0       0       0       0       0       0       0       0       0       0       0       0       
      +0       0
   863 ;;      Totals:         0       0       0       0       0       0       0       0       0       0       0       0       
      +0       0
   864 ;;Total ram usage:        0 bytes
   865 ;; Hardware stack levels used:    1
   866 ;; Hardware stack levels required when called:    3
   867 ;; This function calls:
   868 ;;		_osc_config
   869 ;;		_port_config
   870 ;;		_spi_config
   871 ;;		_wiz_init
   872 ;; This function is called by:
   873 ;;		_main
   874 ;; This function uses a non-reentrant model
   875 ;;
   876                           
   877                           
   878                           ;psect for function _config
   879  052B                     _config:	
   880                           
   881                           ;main.c: 49: osc_config();
   882                           
   883                           ;incstack = 0
   884                           ; Regs used in _config: [wreg+fsr1l+fsr1h+status,2+status,0+pclath+cstack]
   885  052B  3185  2517  3185   	fcall	_osc_config
   886                           
   887                           ;main.c: 51: port_config();
   888  052E  3185  2521  3185   	fcall	_port_config
   889                           
   890                           ;main.c: 53: spi_config();
   891  0531  3185  250F  3185   	fcall	_spi_config
   892                           
   893                           ;main.c: 55: wiz_init();
   894  0534  3186  2641         	fcall	_wiz_init
   895  0536  0008               	return
   896  0537                     __end_of_config:	
   897                           
   898                           	psect	text2
   899  0641                     __ptext2:	
   900 ;; *************** function _wiz_init *****************
   901 ;; Defined at:
   902 ;;		line 59 in file "pic16f145x_wiznet.c"
   903 ;; Parameters:    Size  Location     Type
   904 ;;		None
   905 ;; Auto vars:     Size  Location     Type
   906 ;;  sock            2    5[BANK0 ] unsigned int 
   907 ;;  i               2    3[BANK0 ] int 
   908 ;; Return value:  Size  Location     Type
   909 ;;		None               void
   910 ;; Registers used:
   911 ;;		wreg, fsr1l, fsr1h, status,2, status,0, pclath, cstack
   912 ;; Tracked objects:
   913 ;;		On entry : 0/0
   914 ;;		On exit  : 0/0
   915 ;;		Unchanged: 0/0
   916 ;; Data sizes:     COMMON   BANK0   BANK1   BANK2   BANK3   BANK4   BANK5   BANK6   BANK7   BANK8   BANK9  BANK10  BANK1
      +1  BANK12
   917 ;;      Params:         0       0       0       0       0       0       0       0       0       0       0       0       
      +0       0
   918 ;;      Locals:         0       4       0       0       0       0       0       0       0       0       0       0       
      +0       0
   919 ;;      Temps:          0       1       0       0       0       0       0       0       0       0       0       0       
      +0       0
   920 ;;      Totals:         0       5       0       0       0       0       0       0       0       0       0       0       
      +0       0
   921 ;;Total ram usage:        5 bytes
   922 ;; Hardware stack levels used:    1
   923 ;; Hardware stack levels required when called:    2
   924 ;; This function calls:
   925 ;;		_wiz_reg_read
   926 ;;		_wiz_reg_write
   927 ;;		_wiz_write
   928 ;; This function is called by:
   929 ;;		_config
   930 ;; This function uses a non-reentrant model
   931 ;;
   932                           
   933                           
   934                           ;psect for function _wiz_init
   935  0641                     _wiz_init:	
   936                           
   937                           ;pic16f145x_wiznet.c: 60: LATCbits.LATC3 = 1;
   938                           
   939                           ;incstack = 0
   940                           ; Regs used in _wiz_init: [wreg+fsr1l+fsr1h+status,2+status,0+pclath+cstack]
   941  0641  0022               	movlb	2	; select bank2
   942  0642  158E               	bsf	14,3	;volatile
   943                           
   944                           ;pic16f145x_wiznet.c: 61: _delay((unsigned long)((10)*(48000000/4000000.0)));
   945  0643  3027               	movlw	39
   946  0644  0020               	movlb	0	; select bank0
   947  0645  00CA               	movwf	??_wiz_init
   948  0646                     u177:	
   949  0646  0BCA               	decfsz	??_wiz_init,f
   950  0647  2E46               	goto	u177
   951  0648  3200               	nop2	;nop
   952                           
   953                           ;pic16f145x_wiznet.c: 63: wiz_reg_write(0x00, 0x00, 0x80);
   954  0649  3000               	movlw	0
   955  064A  00F6               	movwf	wiz_reg_write@addr_hi
   956  064B  3000               	movlw	0
   957  064C  00F7               	movwf	wiz_reg_write@addr_hi+1
   958  064D  3000               	movlw	0
   959  064E  00F8               	movwf	wiz_reg_write@addr_lo
   960  064F  3000               	movlw	0
   961  0650  00F9               	movwf	wiz_reg_write@addr_lo+1
   962  0651  3080               	movlw	128
   963  0652  00FA               	movwf	wiz_reg_write@mosi
   964  0653  3000               	movlw	0
   965  0654  00FB               	movwf	wiz_reg_write@mosi+1
   966  0655  3185  2593  3186   	fcall	_wiz_reg_write
   967                           
   968                           ;pic16f145x_wiznet.c: 64: _delay((unsigned long)((100)*(48000000/4000000.0)));
   969  0658  30EF               	movlw	239
   970  0659  0020               	movlb	0	; select bank0
   971  065A  00CA               	movwf	??_wiz_init
   972  065B                     u187:	
   973  065B  3200               	nop2
   974  065C  0BCA               	decfsz	??_wiz_init,f
   975  065D  2E5B               	goto	u187
   976  065E  3200               	nop2	;nop
   977  065F  3200               	nop2	;nop
   978  0660                     l678:	
   979                           ;pic16f145x_wiznet.c: 65: while (wiz_reg_read(0x00, 0x00) & 0x80)
   980                           
   981  0660  3000               	movlw	0
   982  0661  00F6               	movwf	wiz_reg_read@addr_hi
   983  0662  3000               	movlw	0
   984  0663  00F7               	movwf	wiz_reg_read@addr_hi+1
   985  0664  3000               	movlw	0
   986  0665  00F8               	movwf	wiz_reg_read@addr_lo
   987  0666  3000               	movlw	0
   988  0667  00F9               	movwf	wiz_reg_read@addr_lo+1
   989  0668  3185  25C0  3186   	fcall	_wiz_reg_read
   990  066B  1FF6               	btfss	?_wiz_reg_read,7
   991  066C  2E76               	goto	l680
   992                           
   993                           ;pic16f145x_wiznet.c: 66: _delay((unsigned long)((100)*(48000000/4000000.0)));
   994  066D  30EF               	movlw	239
   995  066E  0020               	movlb	0	; select bank0
   996  066F  00CA               	movwf	??_wiz_init
   997  0670                     u197:	
   998  0670  3200               	nop2
   999  0671  0BCA               	decfsz	??_wiz_init,f
  1000  0672  2E70               	goto	u197
  1001  0673  3200               	nop2	;nop
  1002  0674  3200               	nop2	;nop
  1003  0675  2E60               	goto	l678
  1004  0676                     l680:	
  1005                           
  1006                           ;pic16f145x_wiznet.c: 69: wiz_reg_write(0x00, 0x16, 0x00);
  1007  0676  3000               	movlw	0
  1008  0677  00F6               	movwf	wiz_reg_write@addr_hi
  1009  0678  3000               	movlw	0
  1010  0679  00F7               	movwf	wiz_reg_write@addr_hi+1
  1011  067A  3016               	movlw	22
  1012  067B  00F8               	movwf	wiz_reg_write@addr_lo
  1013  067C  3000               	movlw	0
  1014  067D  00F9               	movwf	wiz_reg_write@addr_lo+1
  1015  067E  3000               	movlw	0
  1016  067F  00FA               	movwf	wiz_reg_write@mosi
  1017  0680  3000               	movlw	0
  1018  0681  00FB               	movwf	wiz_reg_write@mosi+1
  1019  0682  3185  2593  3186   	fcall	_wiz_reg_write
  1020                           
  1021                           ;pic16f145x_wiznet.c: 72: wiz_reg_write(0x00, 0x00, 0x00);
  1022  0685  3000               	movlw	0
  1023  0686  00F6               	movwf	wiz_reg_write@addr_hi
  1024  0687  3000               	movlw	0
  1025  0688  00F7               	movwf	wiz_reg_write@addr_hi+1
  1026  0689  3000               	movlw	0
  1027  068A  00F8               	movwf	wiz_reg_write@addr_lo
  1028  068B  3000               	movlw	0
  1029  068C  00F9               	movwf	wiz_reg_write@addr_lo+1
  1030  068D  3000               	movlw	0
  1031  068E  00FA               	movwf	wiz_reg_write@mosi
  1032  068F  3000               	movlw	0
  1033  0690  00FB               	movwf	wiz_reg_write@mosi+1
  1034  0691  3185  2593  3186   	fcall	_wiz_reg_write
  1035                           
  1036                           ;pic16f145x_wiznet.c: 75: wiz_write(0x00, 0x05, subnet, 0x04);
  1037  0694  3000               	movlw	0
  1038  0695  00F6               	movwf	wiz_write@addr_hi
  1039  0696  3000               	movlw	0
  1040  0697  00F7               	movwf	wiz_write@addr_hi+1
  1041  0698  3005               	movlw	5
  1042  0699  00F8               	movwf	wiz_write@addr_lo
  1043  069A  3000               	movlw	0
  1044  069B  00F9               	movwf	wiz_write@addr_lo+1
  1045  069C  303C               	movlw	_subnet& (0+255)
  1046  069D  0020               	movlb	0	; select bank0
  1047  069E  00CA               	movwf	??_wiz_init
  1048  069F  084A               	movf	??_wiz_init,w
  1049  06A0  00FA               	movwf	wiz_write@mosi
  1050  06A1  3004               	movlw	4
  1051  06A2  00FB               	movwf	wiz_write@length
  1052  06A3  3000               	movlw	0
  1053  06A4  00FC               	movwf	wiz_write@length+1
  1054  06A5  3185  25F7  3186   	fcall	_wiz_write
  1055                           
  1056                           ;pic16f145x_wiznet.c: 78: wiz_write(0x00, 0x01, gateway, 0x04);
  1057  06A8  3000               	movlw	0
  1058  06A9  00F6               	movwf	wiz_write@addr_hi
  1059  06AA  3000               	movlw	0
  1060  06AB  00F7               	movwf	wiz_write@addr_hi+1
  1061  06AC  3001               	movlw	1
  1062  06AD  00F8               	movwf	wiz_write@addr_lo
  1063  06AE  3000               	movlw	0
  1064  06AF  00F9               	movwf	wiz_write@addr_lo+1
  1065  06B0  3055               	movlw	_gateway& (0+255)
  1066  06B1  0020               	movlb	0	; select bank0
  1067  06B2  00CA               	movwf	??_wiz_init
  1068  06B3  084A               	movf	??_wiz_init,w
  1069  06B4  00FA               	movwf	wiz_write@mosi
  1070  06B5  3004               	movlw	4
  1071  06B6  00FB               	movwf	wiz_write@length
  1072  06B7  3000               	movlw	0
  1073  06B8  00FC               	movwf	wiz_write@length+1
  1074  06B9  3185  25F7  3186   	fcall	_wiz_write
  1075                           
  1076                           ;pic16f145x_wiznet.c: 81: wiz_write(0x00, 0x0F, ip, 0x04);
  1077  06BC  3000               	movlw	0
  1078  06BD  00F6               	movwf	wiz_write@addr_hi
  1079  06BE  3000               	movlw	0
  1080  06BF  00F7               	movwf	wiz_write@addr_hi+1
  1081  06C0  300F               	movlw	15
  1082  06C1  00F8               	movwf	wiz_write@addr_lo
  1083  06C2  3000               	movlw	0
  1084  06C3  00F9               	movwf	wiz_write@addr_lo+1
  1085  06C4  302C               	movlw	_ip& (0+255)
  1086  06C5  0020               	movlb	0	; select bank0
  1087  06C6  00CA               	movwf	??_wiz_init
  1088  06C7  084A               	movf	??_wiz_init,w
  1089  06C8  00FA               	movwf	wiz_write@mosi
  1090  06C9  3004               	movlw	4
  1091  06CA  00FB               	movwf	wiz_write@length
  1092  06CB  3000               	movlw	0
  1093  06CC  00FC               	movwf	wiz_write@length+1
  1094  06CD  3185  25F7  3186   	fcall	_wiz_write
  1095                           
  1096                           ;pic16f145x_wiznet.c: 84: wiz_write(0x00, 0x09, mac, 0x06);
  1097  06D0  3000               	movlw	0
  1098  06D1  00F6               	movwf	wiz_write@addr_hi
  1099  06D2  3000               	movlw	0
  1100  06D3  00F7               	movwf	wiz_write@addr_hi+1
  1101  06D4  3009               	movlw	9
  1102  06D5  00F8               	movwf	wiz_write@addr_lo
  1103  06D6  3000               	movlw	0
  1104  06D7  00F9               	movwf	wiz_write@addr_lo+1
  1105  06D8  3020               	movlw	_mac& (0+255)
  1106  06D9  0020               	movlb	0	; select bank0
  1107  06DA  00CA               	movwf	??_wiz_init
  1108  06DB  084A               	movf	??_wiz_init,w
  1109  06DC  00FA               	movwf	wiz_write@mosi
  1110  06DD  3006               	movlw	6
  1111  06DE  00FB               	movwf	wiz_write@length
  1112  06DF  3000               	movlw	0
  1113  06E0  00FC               	movwf	wiz_write@length+1
  1114  06E1  3185  25F7  3186   	fcall	_wiz_write
  1115                           
  1116                           ;pic16f145x_wiznet.c: 89: wiz_reg_write(0x00, 0x35, 0x00);
  1117  06E4  3000               	movlw	0
  1118  06E5  00F6               	movwf	wiz_reg_write@addr_hi
  1119  06E6  3000               	movlw	0
  1120  06E7  00F7               	movwf	wiz_reg_write@addr_hi+1
  1121  06E8  3035               	movlw	53
  1122  06E9  00F8               	movwf	wiz_reg_write@addr_lo
  1123  06EA  3000               	movlw	0
  1124  06EB  00F9               	movwf	wiz_reg_write@addr_lo+1
  1125  06EC  3000               	movlw	0
  1126  06ED  00FA               	movwf	wiz_reg_write@mosi
  1127  06EE  3000               	movlw	0
  1128  06EF  00FB               	movwf	wiz_reg_write@mosi+1
  1129  06F0  3185  2593  3186   	fcall	_wiz_reg_write
  1130                           
  1131                           ;pic16f145x_wiznet.c: 90: wiz_reg_write(0x00, 0x36, 0x00);
  1132  06F3  3000               	movlw	0
  1133  06F4  00F6               	movwf	wiz_reg_write@addr_hi
  1134  06F5  3000               	movlw	0
  1135  06F6  00F7               	movwf	wiz_reg_write@addr_hi+1
  1136  06F7  3036               	movlw	54
  1137  06F8  00F8               	movwf	wiz_reg_write@addr_lo
  1138  06F9  3000               	movlw	0
  1139  06FA  00F9               	movwf	wiz_reg_write@addr_lo+1
  1140  06FB  3000               	movlw	0
  1141  06FC  00FA               	movwf	wiz_reg_write@mosi
  1142  06FD  3000               	movlw	0
  1143  06FE  00FB               	movwf	wiz_reg_write@mosi+1
  1144  06FF  3185  2593  3186   	fcall	_wiz_reg_write
  1145                           
  1146                           ;pic16f145x_wiznet.c: 92: int i;
  1147                           ;pic16f145x_wiznet.c: 93: unsigned int sock;
  1148                           ;pic16f145x_wiznet.c: 95: for (i=0; i < 8; i++) {
  1149  0702  0020               	movlb	0	; select bank0
  1150  0703  01CB               	clrf	wiz_init@i
  1151  0704  01CC               	clrf	wiz_init@i+1
  1152  0705  084C               	movf	wiz_init@i+1,w
  1153  0706  3A80               	xorlw	128
  1154  0707  00CA               	movwf	??_wiz_init
  1155  0708  3080               	movlw	128
  1156  0709  024A               	subwf	??_wiz_init,w
  1157  070A  3008               	movlw	8
  1158  070B  1903               	btfsc	3,2
  1159  070C  024B               	subwf	wiz_init@i,w
  1160  070D  1803               	btfsc	3,0
  1161  070E  2F48               	goto	l706
  1162  070F                     l696:	
  1163                           
  1164                           ;pic16f145x_wiznet.c: 96: sock = 0x40+i;
  1165  070F  0020               	movlb	0	; select bank0
  1166  0710  084B               	movf	wiz_init@i,w
  1167  0711  3E40               	addlw	64
  1168  0712  00CD               	movwf	wiz_init@sock
  1169  0713  3000               	movlw	0
  1170  0714  3D4C               	addwfc	wiz_init@i+1,w
  1171  0715  00CE               	movwf	wiz_init@sock+1
  1172                           
  1173                           ;pic16f145x_wiznet.c: 97: wiz_reg_write(sock,0x01, 0x10);
  1174  0716  084E               	movf	wiz_init@sock+1,w
  1175  0717  01F7               	clrf	wiz_reg_write@addr_hi+1
  1176  0718  07F7               	addwf	wiz_reg_write@addr_hi+1,f
  1177  0719  084D               	movf	wiz_init@sock,w
  1178  071A  01F6               	clrf	wiz_reg_write@addr_hi
  1179  071B  07F6               	addwf	wiz_reg_write@addr_hi,f
  1180  071C  3001               	movlw	1
  1181  071D  00F8               	movwf	wiz_reg_write@addr_lo
  1182  071E  3000               	movlw	0
  1183  071F  00F9               	movwf	wiz_reg_write@addr_lo+1
  1184  0720  3010               	movlw	16
  1185  0721  00FA               	movwf	wiz_reg_write@mosi
  1186  0722  3000               	movlw	0
  1187  0723  00FB               	movwf	wiz_reg_write@mosi+1
  1188  0724  3185  2593  3186   	fcall	_wiz_reg_write
  1189                           
  1190                           ;pic16f145x_wiznet.c: 98: wiz_reg_write(sock,0x00, 0x00);
  1191  0727  0020               	movlb	0	; select bank0
  1192  0728  084E               	movf	wiz_init@sock+1,w
  1193  0729  01F7               	clrf	wiz_reg_write@addr_hi+1
  1194  072A  07F7               	addwf	wiz_reg_write@addr_hi+1,f
  1195  072B  084D               	movf	wiz_init@sock,w
  1196  072C  01F6               	clrf	wiz_reg_write@addr_hi
  1197  072D  07F6               	addwf	wiz_reg_write@addr_hi,f
  1198  072E  3000               	movlw	0
  1199  072F  00F8               	movwf	wiz_reg_write@addr_lo
  1200  0730  3000               	movlw	0
  1201  0731  00F9               	movwf	wiz_reg_write@addr_lo+1
  1202  0732  3000               	movlw	0
  1203  0733  00FA               	movwf	wiz_reg_write@mosi
  1204  0734  3000               	movlw	0
  1205  0735  00FB               	movwf	wiz_reg_write@mosi+1
  1206  0736  3185  2593  3186   	fcall	_wiz_reg_write
  1207  0739  3001               	movlw	1
  1208  073A  0020               	movlb	0	; select bank0
  1209  073B  07CB               	addwf	wiz_init@i,f
  1210  073C  3000               	movlw	0
  1211  073D  3DCC               	addwfc	wiz_init@i+1,f
  1212  073E  084C               	movf	wiz_init@i+1,w
  1213  073F  3A80               	xorlw	128
  1214  0740  00CA               	movwf	??_wiz_init
  1215  0741  3080               	movlw	128
  1216  0742  024A               	subwf	??_wiz_init,w
  1217  0743  3008               	movlw	8
  1218  0744  1903               	btfsc	3,2
  1219  0745  024B               	subwf	wiz_init@i,w
  1220  0746  1C03               	skipc
  1221  0747  2F0F               	goto	l696
  1222  0748                     l706:	
  1223                           
  1224                           ;pic16f145x_wiznet.c: 99: }
  1225                           ;pic16f145x_wiznet.c: 102: for (i=0; i < 8; i++) {
  1226  0748  0020               	movlb	0	; select bank0
  1227  0749  01CB               	clrf	wiz_init@i
  1228  074A  01CC               	clrf	wiz_init@i+1
  1229  074B  084C               	movf	wiz_init@i+1,w
  1230  074C  3A80               	xorlw	128
  1231  074D  00CA               	movwf	??_wiz_init
  1232  074E  3080               	movlw	128
  1233  074F  024A               	subwf	??_wiz_init,w
  1234  0750  3008               	movlw	8
  1235  0751  1903               	btfsc	3,2
  1236  0752  024B               	subwf	wiz_init@i,w
  1237  0753  1803               	btfsc	3,0
  1238  0754  2FE0               	goto	l730
  1239  0755                     l712:	
  1240                           
  1241                           ;pic16f145x_wiznet.c: 103: sock = 0x40+i;
  1242  0755  0020               	movlb	0	; select bank0
  1243  0756  084B               	movf	wiz_init@i,w
  1244  0757  3E40               	addlw	64
  1245  0758  00CD               	movwf	wiz_init@sock
  1246  0759  3000               	movlw	0
  1247  075A  3D4C               	addwfc	wiz_init@i+1,w
  1248  075B  00CE               	movwf	wiz_init@sock+1
  1249                           
  1250                           ;pic16f145x_wiznet.c: 104: wiz_reg_write(sock,0x00, 0x02);
  1251  075C  084E               	movf	wiz_init@sock+1,w
  1252  075D  01F7               	clrf	wiz_reg_write@addr_hi+1
  1253  075E  07F7               	addwf	wiz_reg_write@addr_hi+1,f
  1254  075F  084D               	movf	wiz_init@sock,w
  1255  0760  01F6               	clrf	wiz_reg_write@addr_hi
  1256  0761  07F6               	addwf	wiz_reg_write@addr_hi,f
  1257  0762  3000               	movlw	0
  1258  0763  00F8               	movwf	wiz_reg_write@addr_lo
  1259  0764  3000               	movlw	0
  1260  0765  00F9               	movwf	wiz_reg_write@addr_lo+1
  1261  0766  3002               	movlw	2
  1262  0767  00FA               	movwf	wiz_reg_write@mosi
  1263  0768  3000               	movlw	0
  1264  0769  00FB               	movwf	wiz_reg_write@mosi+1
  1265  076A  3185  2593  3186   	fcall	_wiz_reg_write
  1266                           
  1267                           ;pic16f145x_wiznet.c: 105: wiz_reg_write(sock,0x04, 0x13);
  1268  076D  0020               	movlb	0	; select bank0
  1269  076E  084E               	movf	wiz_init@sock+1,w
  1270  076F  01F7               	clrf	wiz_reg_write@addr_hi+1
  1271  0770  07F7               	addwf	wiz_reg_write@addr_hi+1,f
  1272  0771  084D               	movf	wiz_init@sock,w
  1273  0772  01F6               	clrf	wiz_reg_write@addr_hi
  1274  0773  07F6               	addwf	wiz_reg_write@addr_hi,f
  1275  0774  3004               	movlw	4
  1276  0775  00F8               	movwf	wiz_reg_write@addr_lo
  1277  0776  3000               	movlw	0
  1278  0777  00F9               	movwf	wiz_reg_write@addr_lo+1
  1279  0778  3013               	movlw	19
  1280  0779  00FA               	movwf	wiz_reg_write@mosi
  1281  077A  3000               	movlw	0
  1282  077B  00FB               	movwf	wiz_reg_write@mosi+1
  1283  077C  3185  2593  3186   	fcall	_wiz_reg_write
  1284                           
  1285                           ;pic16f145x_wiznet.c: 106: wiz_reg_write(sock,0x05, (0x81+i));
  1286  077F  0020               	movlb	0	; select bank0
  1287  0780  084E               	movf	wiz_init@sock+1,w
  1288  0781  01F7               	clrf	wiz_reg_write@addr_hi+1
  1289  0782  07F7               	addwf	wiz_reg_write@addr_hi+1,f
  1290  0783  084D               	movf	wiz_init@sock,w
  1291  0784  01F6               	clrf	wiz_reg_write@addr_hi
  1292  0785  07F6               	addwf	wiz_reg_write@addr_hi,f
  1293  0786  3005               	movlw	5
  1294  0787  00F8               	movwf	wiz_reg_write@addr_lo
  1295  0788  3000               	movlw	0
  1296  0789  00F9               	movwf	wiz_reg_write@addr_lo+1
  1297  078A  084B               	movf	wiz_init@i,w
  1298  078B  3E81               	addlw	129
  1299  078C  00FA               	movwf	wiz_reg_write@mosi
  1300  078D  3000               	movlw	0
  1301  078E  3D4C               	addwfc	wiz_init@i+1,w
  1302  078F  00FB               	movwf	wiz_reg_write@mosi+1
  1303  0790  3185  2593  3186   	fcall	_wiz_reg_write
  1304                           
  1305                           ;pic16f145x_wiznet.c: 108: wiz_write(sock, 0x0C, source_ip, 0x04);
  1306  0793  0020               	movlb	0	; select bank0
  1307  0794  084E               	movf	wiz_init@sock+1,w
  1308  0795  01F7               	clrf	wiz_write@addr_hi+1
  1309  0796  07F7               	addwf	wiz_write@addr_hi+1,f
  1310  0797  084D               	movf	wiz_init@sock,w
  1311  0798  01F6               	clrf	wiz_write@addr_hi
  1312  0799  07F6               	addwf	wiz_write@addr_hi,f
  1313  079A  300C               	movlw	12
  1314  079B  00F8               	movwf	wiz_write@addr_lo
  1315  079C  3000               	movlw	0
  1316  079D  00F9               	movwf	wiz_write@addr_lo+1
  1317  079E  3034               	movlw	_source_ip& (0+255)
  1318  079F  00CA               	movwf	??_wiz_init
  1319  07A0  084A               	movf	??_wiz_init,w
  1320  07A1  00FA               	movwf	wiz_write@mosi
  1321  07A2  3004               	movlw	4
  1322  07A3  00FB               	movwf	wiz_write@length
  1323  07A4  3000               	movlw	0
  1324  07A5  00FC               	movwf	wiz_write@length+1
  1325  07A6  3185  25F7  3186   	fcall	_wiz_write
  1326                           
  1327                           ;pic16f145x_wiznet.c: 110: wiz_write(sock,0x10, source_port, 0x02);
  1328  07A9  0020               	movlb	0	; select bank0
  1329  07AA  084E               	movf	wiz_init@sock+1,w
  1330  07AB  01F7               	clrf	wiz_write@addr_hi+1
  1331  07AC  07F7               	addwf	wiz_write@addr_hi+1,f
  1332  07AD  084D               	movf	wiz_init@sock,w
  1333  07AE  01F6               	clrf	wiz_write@addr_hi
  1334  07AF  07F6               	addwf	wiz_write@addr_hi,f
  1335  07B0  3010               	movlw	16
  1336  07B1  00F8               	movwf	wiz_write@addr_lo
  1337  07B2  3000               	movlw	0
  1338  07B3  00F9               	movwf	wiz_write@addr_lo+1
  1339  07B4  3044               	movlw	_source_port& (0+255)
  1340  07B5  00CA               	movwf	??_wiz_init
  1341  07B6  084A               	movf	??_wiz_init,w
  1342  07B7  00FA               	movwf	wiz_write@mosi
  1343  07B8  3002               	movlw	2
  1344  07B9  00FB               	movwf	wiz_write@length
  1345  07BA  3000               	movlw	0
  1346  07BB  00FC               	movwf	wiz_write@length+1
  1347  07BC  3185  25F7  3186   	fcall	_wiz_write
  1348                           
  1349                           ;pic16f145x_wiznet.c: 112: wiz_reg_write(sock,0x01, 0x01);
  1350  07BF  0020               	movlb	0	; select bank0
  1351  07C0  084E               	movf	wiz_init@sock+1,w
  1352  07C1  01F7               	clrf	wiz_reg_write@addr_hi+1
  1353  07C2  07F7               	addwf	wiz_reg_write@addr_hi+1,f
  1354  07C3  084D               	movf	wiz_init@sock,w
  1355  07C4  01F6               	clrf	wiz_reg_write@addr_hi
  1356  07C5  07F6               	addwf	wiz_reg_write@addr_hi,f
  1357  07C6  3001               	movlw	1
  1358  07C7  00F8               	movwf	wiz_reg_write@addr_lo
  1359  07C8  3000               	movlw	0
  1360  07C9  00F9               	movwf	wiz_reg_write@addr_lo+1
  1361  07CA  3001               	movlw	1
  1362  07CB  00FA               	movwf	wiz_reg_write@mosi
  1363  07CC  3000               	movlw	0
  1364  07CD  00FB               	movwf	wiz_reg_write@mosi+1
  1365  07CE  3185  2593  3186   	fcall	_wiz_reg_write
  1366  07D1  3001               	movlw	1
  1367  07D2  0020               	movlb	0	; select bank0
  1368  07D3  07CB               	addwf	wiz_init@i,f
  1369  07D4  3000               	movlw	0
  1370  07D5  3DCC               	addwfc	wiz_init@i+1,f
  1371  07D6  084C               	movf	wiz_init@i+1,w
  1372  07D7  3A80               	xorlw	128
  1373  07D8  00CA               	movwf	??_wiz_init
  1374  07D9  3080               	movlw	128
  1375  07DA  024A               	subwf	??_wiz_init,w
  1376  07DB  3008               	movlw	8
  1377  07DC  1903               	btfsc	3,2
  1378  07DD  024B               	subwf	wiz_init@i,w
  1379  07DE  1C03               	skipc
  1380  07DF  2F55               	goto	l712
  1381  07E0                     l730:	
  1382                           
  1383                           ;pic16f145x_wiznet.c: 113: }
  1384                           ;pic16f145x_wiznet.c: 116: _delay((unsigned long)((100)*(48000000/4000000.0)));
  1385  07E0  30EF               	movlw	239
  1386  07E1  0020               	movlb	0	; select bank0
  1387  07E2  00CA               	movwf	??_wiz_init
  1388  07E3                     u207:	
  1389  07E3  3200               	nop2
  1390  07E4  0BCA               	decfsz	??_wiz_init,f
  1391  07E5  2FE3               	goto	u207
  1392  07E6  3200               	nop2	;nop
  1393  07E7  3200               	nop2	;nop
  1394  07E8  0008               	return
  1395  07E9                     __end_of_wiz_init:	
  1396                           
  1397                           	psect	text3
  1398  05F7                     __ptext3:	
  1399 ;; *************** function _wiz_write *****************
  1400 ;; Defined at:
  1401 ;;		line 40 in file "pic16f145x_wiznet.c"
  1402 ;; Parameters:    Size  Location     Type
  1403 ;;  addr_hi         2    6[COMMON] unsigned int 
  1404 ;;  addr_lo         2    8[COMMON] unsigned int 
  1405 ;;  mosi            1   10[COMMON] PTR unsigned int 
  1406 ;;		 -> source_port(4), source_ip(8), subnet(8), ip(8), 
  1407 ;;		 -> mac(12), gateway(8), 
  1408 ;;  length          2   11[COMMON] unsigned int 
  1409 ;; Auto vars:     Size  Location     Type
  1410 ;;  i               2    0[BANK0 ] int 
  1411 ;; Return value:  Size  Location     Type
  1412 ;;		None               void
  1413 ;; Registers used:
  1414 ;;		wreg, fsr1l, fsr1h, status,2, status,0, pclath, cstack
  1415 ;; Tracked objects:
  1416 ;;		On entry : 0/0
  1417 ;;		On exit  : 0/0
  1418 ;;		Unchanged: 0/0
  1419 ;; Data sizes:     COMMON   BANK0   BANK1   BANK2   BANK3   BANK4   BANK5   BANK6   BANK7   BANK8   BANK9  BANK10  BANK1
      +1  BANK12
  1420 ;;      Params:         7       0       0       0       0       0       0       0       0       0       0       0       
      +0       0
  1421 ;;      Locals:         0       2       0       0       0       0       0       0       0       0       0       0       
      +0       0
  1422 ;;      Temps:          1       0       0       0       0       0       0       0       0       0       0       0       
      +0       0
  1423 ;;      Totals:         8       2       0       0       0       0       0       0       0       0       0       0       
      +0       0
  1424 ;;Total ram usage:       10 bytes
  1425 ;; Hardware stack levels used:    1
  1426 ;; Hardware stack levels required when called:    1
  1427 ;; This function calls:
  1428 ;;		_spi
  1429 ;; This function is called by:
  1430 ;;		_wiz_init
  1431 ;; This function uses a non-reentrant model
  1432 ;;
  1433                           
  1434                           
  1435                           ;psect for function _wiz_write
  1436  05F7                     _wiz_write:	
  1437                           
  1438                           ;pic16f145x_wiznet.c: 42: LATCbits.LATC3 = 0;
  1439                           
  1440                           ;incstack = 0
  1441                           ; Regs used in _wiz_write: [wreg+fsr1l+fsr1h+status,2+status,0+pclath+cstack]
  1442  05F7  0022               	movlb	2	; select bank2
  1443  05F8  118E               	bcf	14,3	;volatile
  1444                           
  1445                           ;pic16f145x_wiznet.c: 45: spi(addr_hi);
  1446  05F9  0877               	movf	wiz_write@addr_hi+1,w
  1447  05FA  01F1               	clrf	spi@mosi+1
  1448  05FB  07F1               	addwf	spi@mosi+1,f
  1449  05FC  0876               	movf	wiz_write@addr_hi,w
  1450  05FD  01F0               	clrf	spi@mosi
  1451  05FE  07F0               	addwf	spi@mosi,f
  1452  05FF  3185  2537  3185   	fcall	_spi
  1453                           
  1454                           ;pic16f145x_wiznet.c: 46: spi(addr_lo);
  1455  0602  0879               	movf	wiz_write@addr_lo+1,w
  1456  0603  01F1               	clrf	spi@mosi+1
  1457  0604  07F1               	addwf	spi@mosi+1,f
  1458  0605  0878               	movf	wiz_write@addr_lo,w
  1459  0606  01F0               	clrf	spi@mosi
  1460  0607  07F0               	addwf	spi@mosi,f
  1461  0608  3185  2537  3185   	fcall	_spi
  1462                           
  1463                           ;pic16f145x_wiznet.c: 49: spi(0x80);
  1464  060B  3080               	movlw	128
  1465  060C  00F0               	movwf	spi@mosi
  1466  060D  3000               	movlw	0
  1467  060E  00F1               	movwf	spi@mosi+1
  1468  060F  3185  2537  3185   	fcall	_spi
  1469                           
  1470                           ;pic16f145x_wiznet.c: 50: spi(length);
  1471  0612  087C               	movf	wiz_write@length+1,w
  1472  0613  01F1               	clrf	spi@mosi+1
  1473  0614  07F1               	addwf	spi@mosi+1,f
  1474  0615  087B               	movf	wiz_write@length,w
  1475  0616  01F0               	clrf	spi@mosi
  1476  0617  07F0               	addwf	spi@mosi,f
  1477  0618  3185  2537  3185   	fcall	_spi
  1478                           
  1479                           ;pic16f145x_wiznet.c: 52: for(int i=0;i<length;i++)
  1480  061B  0020               	movlb	0	; select bank0
  1481  061C  01C8               	clrf	wiz_write@i
  1482  061D  01C9               	clrf	wiz_write@i+1
  1483  061E                     l664:	
  1484  061E  087C               	movf	wiz_write@length+1,w
  1485  061F  0249               	subwf	wiz_write@i+1,w
  1486  0620  1D03               	skipz
  1487  0621  2E24               	goto	u95
  1488  0622  087B               	movf	wiz_write@length,w
  1489  0623  0248               	subwf	wiz_write@i,w
  1490  0624                     u95:	
  1491  0624  1803               	btfsc	3,0
  1492  0625  2E39               	goto	l79
  1493                           
  1494                           ;pic16f145x_wiznet.c: 53: spi(mosi[i]);
  1495  0626  3548               	lslf	wiz_write@i,w
  1496  0627  077A               	addwf	wiz_write@mosi,w
  1497  0628  00FD               	movwf	??_wiz_write
  1498  0629  087D               	movf	??_wiz_write,w
  1499  062A  0086               	movwf	6
  1500  062B  0187               	clrf	7
  1501  062C  3F40               	moviw [0]fsr1
  1502  062D  00F0               	movwf	spi@mosi
  1503  062E  3F41               	moviw [1]fsr1
  1504  062F  00F1               	movwf	spi@mosi+1
  1505  0630  3185  2537  3185   	fcall	_spi
  1506  0633  3001               	movlw	1
  1507  0634  0020               	movlb	0	; select bank0
  1508  0635  07C8               	addwf	wiz_write@i,f
  1509  0636  3000               	movlw	0
  1510  0637  3DC9               	addwfc	wiz_write@i+1,f
  1511  0638  2E1E               	goto	l664
  1512  0639                     l79:	
  1513                           
  1514                           ;pic16f145x_wiznet.c: 55: LATCbits.LATC3 = 1;
  1515  0639  0022               	movlb	2	; select bank2
  1516  063A  158E               	bsf	14,3	;volatile
  1517                           
  1518                           ;pic16f145x_wiznet.c: 56: _delay((unsigned long)((10)*(48000000/4000000.0)));
  1519  063B  3027               	movlw	39
  1520  063C  00FD               	movwf	??_wiz_write
  1521  063D                     u217:	
  1522  063D  0BFD               	decfsz	??_wiz_write,f
  1523  063E  2E3D               	goto	u217
  1524  063F  3200               	nop2	;nop
  1525  0640  0008               	return
  1526  0641                     __end_of_wiz_write:	
  1527                           
  1528                           	psect	text4
  1529  0593                     __ptext4:	
  1530 ;; *************** function _wiz_reg_write *****************
  1531 ;; Defined at:
  1532 ;;		line 20 in file "pic16f145x_wiznet.c"
  1533 ;; Parameters:    Size  Location     Type
  1534 ;;  addr_hi         2    6[COMMON] unsigned int 
  1535 ;;  addr_lo         2    8[COMMON] unsigned int 
  1536 ;;  mosi            2   10[COMMON] unsigned int 
  1537 ;; Auto vars:     Size  Location     Type
  1538 ;;		None
  1539 ;; Return value:  Size  Location     Type
  1540 ;;		None               void
  1541 ;; Registers used:
  1542 ;;		wreg, status,2, status,0, pclath, cstack
  1543 ;; Tracked objects:
  1544 ;;		On entry : 0/0
  1545 ;;		On exit  : 0/0
  1546 ;;		Unchanged: 0/0
  1547 ;; Data sizes:     COMMON   BANK0   BANK1   BANK2   BANK3   BANK4   BANK5   BANK6   BANK7   BANK8   BANK9  BANK10  BANK1
      +1  BANK12
  1548 ;;      Params:         6       0       0       0       0       0       0       0       0       0       0       0       
      +0       0
  1549 ;;      Locals:         0       0       0       0       0       0       0       0       0       0       0       0       
      +0       0
  1550 ;;      Temps:          0       0       0       0       0       0       0       0       0       0       0       0       
      +0       0
  1551 ;;      Totals:         6       0       0       0       0       0       0       0       0       0       0       0       
      +0       0
  1552 ;;Total ram usage:        6 bytes
  1553 ;; Hardware stack levels used:    1
  1554 ;; Hardware stack levels required when called:    1
  1555 ;; This function calls:
  1556 ;;		_spi
  1557 ;; This function is called by:
  1558 ;;		_wiz_init
  1559 ;; This function uses a non-reentrant model
  1560 ;;
  1561                           
  1562                           
  1563                           ;psect for function _wiz_reg_write
  1564  0593                     _wiz_reg_write:	
  1565                           
  1566                           ;pic16f145x_wiznet.c: 22: LATCbits.LATC3 = 0;
  1567                           
  1568                           ;incstack = 0
  1569                           ; Regs used in _wiz_reg_write: [wreg+status,2+status,0+pclath+cstack]
  1570  0593  0022               	movlb	2	; select bank2
  1571  0594  118E               	bcf	14,3	;volatile
  1572                           
  1573                           ;pic16f145x_wiznet.c: 24: spi(addr_hi);
  1574  0595  0877               	movf	wiz_reg_write@addr_hi+1,w
  1575  0596  01F1               	clrf	spi@mosi+1
  1576  0597  07F1               	addwf	spi@mosi+1,f
  1577  0598  0876               	movf	wiz_reg_write@addr_hi,w
  1578  0599  01F0               	clrf	spi@mosi
  1579  059A  07F0               	addwf	spi@mosi,f
  1580  059B  3185  2537  3185   	fcall	_spi
  1581                           
  1582                           ;pic16f145x_wiznet.c: 25: spi(addr_lo);
  1583  059E  0879               	movf	wiz_reg_write@addr_lo+1,w
  1584  059F  01F1               	clrf	spi@mosi+1
  1585  05A0  07F1               	addwf	spi@mosi+1,f
  1586  05A1  0878               	movf	wiz_reg_write@addr_lo,w
  1587  05A2  01F0               	clrf	spi@mosi
  1588  05A3  07F0               	addwf	spi@mosi,f
  1589  05A4  3185  2537  3185   	fcall	_spi
  1590                           
  1591                           ;pic16f145x_wiznet.c: 28: spi(0x80);
  1592  05A7  3080               	movlw	128
  1593  05A8  00F0               	movwf	spi@mosi
  1594  05A9  3000               	movlw	0
  1595  05AA  00F1               	movwf	spi@mosi+1
  1596  05AB  3185  2537  3185   	fcall	_spi
  1597                           
  1598                           ;pic16f145x_wiznet.c: 29: spi(0x01);
  1599  05AE  3001               	movlw	1
  1600  05AF  00F0               	movwf	spi@mosi
  1601  05B0  3000               	movlw	0
  1602  05B1  00F1               	movwf	spi@mosi+1
  1603  05B2  3185  2537  3185   	fcall	_spi
  1604                           
  1605                           ;pic16f145x_wiznet.c: 31: spi(mosi);
  1606  05B5  087B               	movf	wiz_reg_write@mosi+1,w
  1607  05B6  01F1               	clrf	spi@mosi+1
  1608  05B7  07F1               	addwf	spi@mosi+1,f
  1609  05B8  087A               	movf	wiz_reg_write@mosi,w
  1610  05B9  01F0               	clrf	spi@mosi
  1611  05BA  07F0               	addwf	spi@mosi,f
  1612  05BB  3185  2537         	fcall	_spi
  1613                           
  1614                           ;pic16f145x_wiznet.c: 32: LATCbits.LATC3 = 1;
  1615  05BD  0022               	movlb	2	; select bank2
  1616  05BE  158E               	bsf	14,3	;volatile
  1617  05BF  0008               	return
  1618  05C0                     __end_of_wiz_reg_write:	
  1619                           
  1620                           	psect	text5
  1621  05C0                     __ptext5:	
  1622 ;; *************** function _wiz_reg_read *****************
  1623 ;; Defined at:
  1624 ;;		line 3 in file "pic16f145x_wiznet.c"
  1625 ;; Parameters:    Size  Location     Type
  1626 ;;  addr_hi         2    6[COMMON] unsigned int 
  1627 ;;  addr_lo         2    8[COMMON] unsigned int 
  1628 ;; Auto vars:     Size  Location     Type
  1629 ;;  miso            2   10[COMMON] unsigned int 
  1630 ;; Return value:  Size  Location     Type
  1631 ;;                  2    6[COMMON] unsigned int 
  1632 ;; Registers used:
  1633 ;;		wreg, status,2, status,0, pclath, cstack
  1634 ;; Tracked objects:
  1635 ;;		On entry : 0/0
  1636 ;;		On exit  : 0/0
  1637 ;;		Unchanged: 0/0
  1638 ;; Data sizes:     COMMON   BANK0   BANK1   BANK2   BANK3   BANK4   BANK5   BANK6   BANK7   BANK8   BANK9  BANK10  BANK1
      +1  BANK12
  1639 ;;      Params:         4       0       0       0       0       0       0       0       0       0       0       0       
      +0       0
  1640 ;;      Locals:         2       0       0       0       0       0       0       0       0       0       0       0       
      +0       0
  1641 ;;      Temps:          0       0       0       0       0       0       0       0       0       0       0       0       
      +0       0
  1642 ;;      Totals:         6       0       0       0       0       0       0       0       0       0       0       0       
      +0       0
  1643 ;;Total ram usage:        6 bytes
  1644 ;; Hardware stack levels used:    1
  1645 ;; Hardware stack levels required when called:    1
  1646 ;; This function calls:
  1647 ;;		_spi
  1648 ;; This function is called by:
  1649 ;;		_wiz_init
  1650 ;; This function uses a non-reentrant model
  1651 ;;
  1652                           
  1653                           
  1654                           ;psect for function _wiz_reg_read
  1655  05C0                     _wiz_reg_read:	
  1656                           
  1657                           ;pic16f145x_wiznet.c: 5: LATCbits.LATC3 = 0;
  1658                           
  1659                           ;incstack = 0
  1660                           ; Regs used in _wiz_reg_read: [wreg+status,2+status,0+pclath+cstack]
  1661  05C0  0022               	movlb	2	; select bank2
  1662  05C1  118E               	bcf	14,3	;volatile
  1663                           
  1664                           ;pic16f145x_wiznet.c: 7: spi(addr_hi);
  1665  05C2  0877               	movf	wiz_reg_read@addr_hi+1,w
  1666  05C3  01F1               	clrf	spi@mosi+1
  1667  05C4  07F1               	addwf	spi@mosi+1,f
  1668  05C5  0876               	movf	wiz_reg_read@addr_hi,w
  1669  05C6  01F0               	clrf	spi@mosi
  1670  05C7  07F0               	addwf	spi@mosi,f
  1671  05C8  3185  2537  3185   	fcall	_spi
  1672                           
  1673                           ;pic16f145x_wiznet.c: 8: spi(addr_lo);
  1674  05CB  0879               	movf	wiz_reg_read@addr_lo+1,w
  1675  05CC  01F1               	clrf	spi@mosi+1
  1676  05CD  07F1               	addwf	spi@mosi+1,f
  1677  05CE  0878               	movf	wiz_reg_read@addr_lo,w
  1678  05CF  01F0               	clrf	spi@mosi
  1679  05D0  07F0               	addwf	spi@mosi,f
  1680  05D1  3185  2537  3185   	fcall	_spi
  1681                           
  1682                           ;pic16f145x_wiznet.c: 11: spi(0x00);
  1683  05D4  3000               	movlw	0
  1684  05D5  00F0               	movwf	spi@mosi
  1685  05D6  3000               	movlw	0
  1686  05D7  00F1               	movwf	spi@mosi+1
  1687  05D8  3185  2537  3185   	fcall	_spi
  1688                           
  1689                           ;pic16f145x_wiznet.c: 12: spi(0x01);
  1690  05DB  3001               	movlw	1
  1691  05DC  00F0               	movwf	spi@mosi
  1692  05DD  3000               	movlw	0
  1693  05DE  00F1               	movwf	spi@mosi+1
  1694  05DF  3185  2537  3185   	fcall	_spi
  1695                           
  1696                           ;pic16f145x_wiznet.c: 14: unsigned int miso = spi(0x00);
  1697  05E2  3000               	movlw	0
  1698  05E3  00F0               	movwf	spi@mosi
  1699  05E4  3000               	movlw	0
  1700  05E5  00F1               	movwf	spi@mosi+1
  1701  05E6  3185  2537         	fcall	_spi
  1702  05E8  0871               	movf	?_spi+1,w
  1703  05E9  01FB               	clrf	wiz_reg_read@miso+1
  1704  05EA  07FB               	addwf	wiz_reg_read@miso+1,f
  1705  05EB  0870               	movf	?_spi,w
  1706  05EC  01FA               	clrf	wiz_reg_read@miso
  1707  05ED  07FA               	addwf	wiz_reg_read@miso,f
  1708                           
  1709                           ;pic16f145x_wiznet.c: 15: LATCbits.LATC3 = 1;
  1710  05EE  0022               	movlb	2	; select bank2
  1711  05EF  158E               	bsf	14,3	;volatile
  1712                           
  1713                           ;pic16f145x_wiznet.c: 17: return (miso);
  1714  05F0  087B               	movf	wiz_reg_read@miso+1,w
  1715  05F1  01F7               	clrf	?_wiz_reg_read+1
  1716  05F2  07F7               	addwf	?_wiz_reg_read+1,f
  1717  05F3  087A               	movf	wiz_reg_read@miso,w
  1718  05F4  01F6               	clrf	?_wiz_reg_read
  1719  05F5  07F6               	addwf	?_wiz_reg_read,f
  1720  05F6  0008               	return
  1721  05F7                     __end_of_wiz_reg_read:	
  1722                           
  1723                           	psect	text6
  1724  0537                     __ptext6:	
  1725 ;; *************** function _spi *****************
  1726 ;; Defined at:
  1727 ;;		line 7 in file "pic16f145x_spi.c"
  1728 ;; Parameters:    Size  Location     Type
  1729 ;;  mosi            2    0[COMMON] unsigned int 
  1730 ;; Auto vars:     Size  Location     Type
  1731 ;;  miso            2    4[COMMON] unsigned int 
  1732 ;; Return value:  Size  Location     Type
  1733 ;;                  2    0[COMMON] unsigned int 
  1734 ;; Registers used:
  1735 ;;		wreg, status,2, status,0
  1736 ;; Tracked objects:
  1737 ;;		On entry : 0/0
  1738 ;;		On exit  : 0/0
  1739 ;;		Unchanged: 0/0
  1740 ;; Data sizes:     COMMON   BANK0   BANK1   BANK2   BANK3   BANK4   BANK5   BANK6   BANK7   BANK8   BANK9  BANK10  BANK1
      +1  BANK12
  1741 ;;      Params:         2       0       0       0       0       0       0       0       0       0       0       0       
      +0       0
  1742 ;;      Locals:         2       0       0       0       0       0       0       0       0       0       0       0       
      +0       0
  1743 ;;      Temps:          2       0       0       0       0       0       0       0       0       0       0       0       
      +0       0
  1744 ;;      Totals:         6       0       0       0       0       0       0       0       0       0       0       0       
      +0       0
  1745 ;;Total ram usage:        6 bytes
  1746 ;; Hardware stack levels used:    1
  1747 ;; This function calls:
  1748 ;;		Nothing
  1749 ;; This function is called by:
  1750 ;;		_main
  1751 ;;		_wiz_reg_read
  1752 ;;		_wiz_reg_write
  1753 ;;		_wiz_write
  1754 ;; This function uses a non-reentrant model
  1755 ;;
  1756                           
  1757                           
  1758                           ;psect for function _spi
  1759  0537                     _spi:	
  1760                           
  1761                           ;pic16f145x_spi.c: 9: unsigned int miso;
  1762                           ;pic16f145x_spi.c: 11: PIR1bits.SSP1IF=0;
  1763                           
  1764                           ;incstack = 0
  1765                           ; Regs used in _spi: [wreg+status,2+status,0]
  1766  0537  0020               	movlb	0	; select bank0
  1767  0538  1191               	bcf	17,3	;volatile
  1768                           
  1769                           ;pic16f145x_spi.c: 12: SSPBUF = mosi;
  1770  0539  0870               	movf	spi@mosi,w
  1771  053A  0024               	movlb	4	; select bank4
  1772  053B  0091               	movwf	17	;volatile
  1773  053C                     l44:	
  1774                           ;pic16f145x_spi.c: 13: while(!SSPSTATbits.BF);
  1775                           
  1776  053C  1C14               	btfss	20,0	;volatile
  1777  053D  2D3C               	goto	l44
  1778                           
  1779                           ;pic16f145x_spi.c: 14: miso = SSPBUF;
  1780  053E  0811               	movf	17,w	;volatile
  1781  053F  00F2               	movwf	??_spi
  1782  0540  01F3               	clrf	??_spi+1
  1783  0541  0872               	movf	??_spi,w
  1784  0542  00F4               	movwf	spi@miso
  1785  0543  0873               	movf	??_spi+1,w
  1786  0544  00F5               	movwf	spi@miso+1
  1787                           
  1788                           ;pic16f145x_spi.c: 15: return (miso);
  1789  0545  0875               	movf	spi@miso+1,w
  1790  0546  01F1               	clrf	?_spi+1
  1791  0547  07F1               	addwf	?_spi+1,f
  1792  0548  0874               	movf	spi@miso,w
  1793  0549  01F0               	clrf	?_spi
  1794  054A  07F0               	addwf	?_spi,f
  1795  054B  0008               	return
  1796  054C                     __end_of_spi:	
  1797                           
  1798                           	psect	text7
  1799  050F                     __ptext7:	
  1800 ;; *************** function _spi_config *****************
  1801 ;; Defined at:
  1802 ;;		line 40 in file "conf.c"
  1803 ;; Parameters:    Size  Location     Type
  1804 ;;		None
  1805 ;; Auto vars:     Size  Location     Type
  1806 ;;		None
  1807 ;; Return value:  Size  Location     Type
  1808 ;;		None               void
  1809 ;; Registers used:
  1810 ;;		wreg, status,2, status,0
  1811 ;; Tracked objects:
  1812 ;;		On entry : 0/0
  1813 ;;		On exit  : 0/0
  1814 ;;		Unchanged: 0/0
  1815 ;; Data sizes:     COMMON   BANK0   BANK1   BANK2   BANK3   BANK4   BANK5   BANK6   BANK7   BANK8   BANK9  BANK10  BANK1
      +1  BANK12
  1816 ;;      Params:         0       0       0       0       0       0       0       0       0       0       0       0       
      +0       0
  1817 ;;      Locals:         0       0       0       0       0       0       0       0       0       0       0       0       
      +0       0
  1818 ;;      Temps:          0       0       0       0       0       0       0       0       0       0       0       0       
      +0       0
  1819 ;;      Totals:         0       0       0       0       0       0       0       0       0       0       0       0       
      +0       0
  1820 ;;Total ram usage:        0 bytes
  1821 ;; Hardware stack levels used:    1
  1822 ;; This function calls:
  1823 ;;		Nothing
  1824 ;; This function is called by:
  1825 ;;		_config
  1826 ;; This function uses a non-reentrant model
  1827 ;;
  1828                           
  1829                           
  1830                           ;psect for function _spi_config
  1831  050F                     _spi_config:	
  1832                           
  1833                           ;conf.c: 51: SSPCONbits.SSPM = 0x00;
  1834                           
  1835                           ;incstack = 0
  1836                           ; Regs used in _spi_config: [wreg+status,2+status,0]
  1837  050F  30F0               	movlw	-16
  1838  0510  0024               	movlb	4	; select bank4
  1839  0511  0595               	andwf	21,f	;volatile
  1840                           
  1841                           ;conf.c: 52: SSPCONbits.CKP = 0x00;
  1842  0512  1215               	bcf	21,4	;volatile
  1843                           
  1844                           ;conf.c: 53: SSPSTATbits.CKE = 0x01;
  1845  0513  1714               	bsf	20,6	;volatile
  1846                           
  1847                           ;conf.c: 54: SSPSTATbits.SMP = 0x00;
  1848  0514  1394               	bcf	20,7	;volatile
  1849                           
  1850                           ;conf.c: 55: SSPCONbits.SSPEN = 0x01;
  1851  0515  1695               	bsf	21,5	;volatile
  1852  0516  0008               	return
  1853  0517                     __end_of_spi_config:	
  1854                           
  1855                           	psect	text8
  1856  0521                     __ptext8:	
  1857 ;; *************** function _port_config *****************
  1858 ;; Defined at:
  1859 ;;		line 22 in file "conf.c"
  1860 ;; Parameters:    Size  Location     Type
  1861 ;;		None
  1862 ;; Auto vars:     Size  Location     Type
  1863 ;;		None
  1864 ;; Return value:  Size  Location     Type
  1865 ;;		None               void
  1866 ;; Registers used:
  1867 ;;		None
  1868 ;; Tracked objects:
  1869 ;;		On entry : 0/0
  1870 ;;		On exit  : 0/0
  1871 ;;		Unchanged: 0/0
  1872 ;; Data sizes:     COMMON   BANK0   BANK1   BANK2   BANK3   BANK4   BANK5   BANK6   BANK7   BANK8   BANK9  BANK10  BANK1
      +1  BANK12
  1873 ;;      Params:         0       0       0       0       0       0       0       0       0       0       0       0       
      +0       0
  1874 ;;      Locals:         0       0       0       0       0       0       0       0       0       0       0       0       
      +0       0
  1875 ;;      Temps:          0       0       0       0       0       0       0       0       0       0       0       0       
      +0       0
  1876 ;;      Totals:         0       0       0       0       0       0       0       0       0       0       0       0       
      +0       0
  1877 ;;Total ram usage:        0 bytes
  1878 ;; Hardware stack levels used:    1
  1879 ;; This function calls:
  1880 ;;		Nothing
  1881 ;; This function is called by:
  1882 ;;		_config
  1883 ;; This function uses a non-reentrant model
  1884 ;;
  1885                           
  1886                           
  1887                           ;psect for function _port_config
  1888  0521                     _port_config:	
  1889                           
  1890                           ;conf.c: 26: TRISCbits.TRISC0 = 0;
  1891                           
  1892                           ;incstack = 0
  1893                           ; Regs used in _port_config: []
  1894  0521  0021               	movlb	1	; select bank1
  1895  0522  100E               	bcf	14,0	;volatile
  1896                           
  1897                           ;conf.c: 27: TRISCbits.TRISC1 = 1;
  1898  0523  148E               	bsf	14,1	;volatile
  1899                           
  1900                           ;conf.c: 28: TRISCbits.TRISC2 = 0;
  1901  0524  110E               	bcf	14,2	;volatile
  1902                           
  1903                           ;conf.c: 31: TRISCbits.TRISC4 = 0;
  1904  0525  120E               	bcf	14,4	;volatile
  1905                           
  1906                           ;conf.c: 32: TRISCbits.TRISC5 = 0;
  1907  0526  128E               	bcf	14,5	;volatile
  1908                           
  1909                           ;conf.c: 35: TRISCbits.TRISC3 = 0;
  1910  0527  118E               	bcf	14,3	;volatile
  1911                           
  1912                           ;conf.c: 36: TRISAbits.TRISA4 = 0;
  1913  0528  120C               	bcf	12,4	;volatile
  1914                           
  1915                           ;conf.c: 37: TRISAbits.TRISA5 = 1;
  1916  0529  168C               	bsf	12,5	;volatile
  1917  052A  0008               	return
  1918  052B                     __end_of_port_config:	
  1919                           
  1920                           	psect	text9
  1921  0517                     __ptext9:	
  1922 ;; *************** function _osc_config *****************
  1923 ;; Defined at:
  1924 ;;		line 10 in file "conf.c"
  1925 ;; Parameters:    Size  Location     Type
  1926 ;;		None
  1927 ;; Auto vars:     Size  Location     Type
  1928 ;;		None
  1929 ;; Return value:  Size  Location     Type
  1930 ;;		None               void
  1931 ;; Registers used:
  1932 ;;		wreg, status,2, status,0
  1933 ;; Tracked objects:
  1934 ;;		On entry : 0/0
  1935 ;;		On exit  : 0/0
  1936 ;;		Unchanged: 0/0
  1937 ;; Data sizes:     COMMON   BANK0   BANK1   BANK2   BANK3   BANK4   BANK5   BANK6   BANK7   BANK8   BANK9  BANK10  BANK1
      +1  BANK12
  1938 ;;      Params:         0       0       0       0       0       0       0       0       0       0       0       0       
      +0       0
  1939 ;;      Locals:         0       0       0       0       0       0       0       0       0       0       0       0       
      +0       0
  1940 ;;      Temps:          0       0       0       0       0       0       0       0       0       0       0       0       
      +0       0
  1941 ;;      Totals:         0       0       0       0       0       0       0       0       0       0       0       0       
      +0       0
  1942 ;;Total ram usage:        0 bytes
  1943 ;; Hardware stack levels used:    1
  1944 ;; This function calls:
  1945 ;;		Nothing
  1946 ;; This function is called by:
  1947 ;;		_config
  1948 ;; This function uses a non-reentrant model
  1949 ;;
  1950                           
  1951                           
  1952                           ;psect for function _osc_config
  1953  0517                     _osc_config:	
  1954                           
  1955                           ;conf.c: 14: OSCCONbits.IRCF = 0x0F;
  1956                           
  1957                           ;incstack = 0
  1958                           ; Regs used in _osc_config: [wreg+status,2+status,0]
  1959  0517  303C               	movlw	60
  1960  0518  0021               	movlb	1	; select bank1
  1961  0519  0499               	iorwf	25,f	;volatile
  1962                           
  1963                           ;conf.c: 15: OSCCONbits.SCS = 0x00;
  1964  051A  30FC               	movlw	-4
  1965  051B  0599               	andwf	25,f	;volatile
  1966                           
  1967                           ;conf.c: 16: OSCCONbits.SPLLEN = 0x01;
  1968  051C  1799               	bsf	25,7	;volatile
  1969                           
  1970                           ;conf.c: 17: OSCCONbits.SPLLMULT = 0x01;
  1971  051D  1719               	bsf	25,6	;volatile
  1972                           
  1973                           ;conf.c: 19: OSCTUNEbits.TUN = 0xFF;
  1974  051E  307F               	movlw	127
  1975  051F  0498               	iorwf	24,f	;volatile
  1976  0520  0008               	return
  1977  0521                     __end_of_osc_config:	
  1978  007E                     btemp	set	126	;btemp
  1979  007E                     pic14e$flags	set	126
  1980  007E                     wtemp	set	126
  1981  007E                     wtemp0	set	126
  1982  0080                     wtemp1	set	128
  1983  0082                     wtemp2	set	130
  1984  0084                     wtemp3	set	132
  1985  0086                     wtemp4	set	134
  1986  0088                     wtemp5	set	136
  1987  007F                     wtemp6	set	127
  1988  007E                     ttemp	set	126
  1989  007E                     ttemp0	set	126
  1990  0081                     ttemp1	set	129
  1991  0084                     ttemp2	set	132
  1992  0087                     ttemp3	set	135
  1993  007F                     ttemp4	set	127
  1994  007E                     ltemp	set	126
  1995  007E                     ltemp0	set	126
  1996  0082                     ltemp1	set	130
  1997  0086                     ltemp2	set	134
  1998  0080                     ltemp3	set	128


Data Sizes:
    Strings     0
    Constant    0
    Data        40
    BSS         8
    Persistent  0
    Stack       0

Auto Spaces:
    Space          Size  Autos    Used
    COMMON           14     14      14
    BANK0            80     13      61
    BANK1            80      0       0
    BANK2            80      0       0
    BANK3            80      0       0
    BANK4            80      0       0
    BANK5            80      0       0
    BANK6            80      0       0
    BANK7            80      0       0
    BANK8            80      0       0
    BANK9            80      0       0
    BANK10           80      0       0
    BANK11           80      0       0
    BANK12           48      0       0

Pointer List with Targets:

    wiz_write@mosi	PTR unsigned int  size(1) Largest target is 12
		 -> source_port(BANK0[4]), source_ip(BANK0[8]), subnet(BANK0[8]), ip(BANK0[8]), 
		 -> mac(BANK0[12]), gateway(BANK0[8]), 

    source_port	PTR const unsigned int [2] size(2) Largest target is 8192
		 -> ROM(CODE[8192]), 

    source_ip	PTR const unsigned int [4] size(2) Largest target is 8192
		 -> ROM(CODE[8192]), 

    subnet	PTR const unsigned int [4] size(2) Largest target is 8192
		 -> ROM(CODE[8192]), 

    ip	PTR const unsigned int [4] size(2) Largest target is 8192
		 -> ROM(CODE[8192]), 

    mac	PTR const unsigned int [6] size(2) Largest target is 8192
		 -> ROM(CODE[8192]), 

    gateway	PTR const unsigned int [4] size(2) Largest target is 8192
		 -> ROM(CODE[8192]), 


Critical Paths under _main in COMMON

    _wiz_init->_wiz_write
    _wiz_write->_spi
    _wiz_reg_write->_spi
    _wiz_reg_read->_spi

Critical Paths under _main in BANK0

    _config->_wiz_init
    _wiz_init->_wiz_write

Critical Paths under _main in BANK1

    None.

Critical Paths under _main in BANK2

    None.

Critical Paths under _main in BANK3

    None.

Critical Paths under _main in BANK4

    None.

Critical Paths under _main in BANK5

    None.

Critical Paths under _main in BANK6

    None.

Critical Paths under _main in BANK7

    None.

Critical Paths under _main in BANK8

    None.

Critical Paths under _main in BANK9

    None.

Critical Paths under _main in BANK10

    None.

Critical Paths under _main in BANK11

    None.

Critical Paths under _main in BANK12

    None.

Call Graph Tables:

 ---------------------------------------------------------------------------------
 (Depth) Function   	        Calls       Base Space   Used Autos Params    Refs
 ---------------------------------------------------------------------------------
 (0) _main                                                 6     2      4    7324
                                              7 BANK0      6     2      4
                             _config
                                _spi
 ---------------------------------------------------------------------------------
 (1) _config                                               0     0      0    6431
                         _osc_config
                        _port_config
                         _spi_config
                           _wiz_init
 ---------------------------------------------------------------------------------
 (2) _wiz_init                                             5     5      0    6431
                                              2 BANK0      5     5      0
                       _wiz_reg_read
                      _wiz_reg_write
                          _wiz_write
 ---------------------------------------------------------------------------------
 (3) _wiz_write                                           10     3      7    2321
                                              6 COMMON     8     1      7
                                              0 BANK0      2     2      0
                                _spi
 ---------------------------------------------------------------------------------
 (3) _wiz_reg_write                                        6     0      6    2708
                                              6 COMMON     6     0      6
                                _spi
 ---------------------------------------------------------------------------------
 (3) _wiz_reg_read                                         6     2      4    1066
                                              6 COMMON     6     2      4
                                _spi
 ---------------------------------------------------------------------------------
 (1) _spi                                                  6     4      2     893
                                              0 COMMON     6     4      2
 ---------------------------------------------------------------------------------
 (2) _spi_config                                           0     0      0       0
 ---------------------------------------------------------------------------------
 (2) _port_config                                          0     0      0       0
 ---------------------------------------------------------------------------------
 (2) _osc_config                                           0     0      0       0
 ---------------------------------------------------------------------------------
 Estimated maximum stack depth 3
 ---------------------------------------------------------------------------------

 Call Graph Graphs:

 _main (ROOT)
   _config
     _osc_config
     _port_config
     _spi_config
     _wiz_init
       _wiz_reg_read
         _spi
       _wiz_reg_write
         _spi
       _wiz_write
         _spi
   _spi

 Address spaces:
Name               Size   Autos  Total    Cost      Usage
BIGRAM             3F0      0       0       0        0.0%
NULL                 0      0       0       0        0.0%
CODE                 0      0       0       0        0.0%
BITCOMMON            E      0       0       1        0.0%
BITSFR0              0      0       0       1        0.0%
SFR0                 0      0       0       1        0.0%
COMMON               E      E       E       2      100.0%
BITSFR1              0      0       0       2        0.0%
SFR1                 0      0       0       2        0.0%
BITSFR2              0      0       0       3        0.0%
SFR2                 0      0       0       3        0.0%
STACK                0      0       0       3        0.0%
BITBANK0            50      0       0       4        0.0%
BITSFR3              0      0       0       4        0.0%
SFR3                 0      0       0       4        0.0%
BANK0               50      D      3D       5       76.3%
BITSFR4              0      0       0       5        0.0%
SFR4                 0      0       0       5        0.0%
BITBANK1            50      0       0       6        0.0%
BITSFR5              0      0       0       6        0.0%
SFR5                 0      0       0       6        0.0%
BANK1               50      0       0       7        0.0%
BITSFR6              0      0       0       7        0.0%
SFR6                 0      0       0       7        0.0%
BITBANK2            50      0       0       8        0.0%
BITSFR7              0      0       0       8        0.0%
SFR7                 0      0       0       8        0.0%
BANK2               50      0       0       9        0.0%
BITSFR8              0      0       0       9        0.0%
SFR8                 0      0       0       9        0.0%
BITBANK3            50      0       0      10        0.0%
BITSFR9              0      0       0      10        0.0%
SFR9                 0      0       0      10        0.0%
BANK3               50      0       0      11        0.0%
BITSFR10             0      0       0      11        0.0%
SFR10                0      0       0      11        0.0%
BITBANK4            50      0       0      12        0.0%
BITSFR11             0      0       0      12        0.0%
SFR11                0      0       0      12        0.0%
BANK4               50      0       0      13        0.0%
BITSFR12             0      0       0      13        0.0%
SFR12                0      0       0      13        0.0%
BITBANK5            50      0       0      14        0.0%
BITSFR13             0      0       0      14        0.0%
SFR13                0      0       0      14        0.0%
BANK5               50      0       0      15        0.0%
BITSFR14             0      0       0      15        0.0%
SFR14                0      0       0      15        0.0%
BITBANK6            50      0       0      16        0.0%
BITSFR15             0      0       0      16        0.0%
SFR15                0      0       0      16        0.0%
BANK6               50      0       0      17        0.0%
BITSFR16             0      0       0      17        0.0%
SFR16                0      0       0      17        0.0%
BITBANK7            50      0       0      18        0.0%
BITSFR17             0      0       0      18        0.0%
SFR17                0      0       0      18        0.0%
BANK7               50      0       0      19        0.0%
BITSFR18             0      0       0      19        0.0%
SFR18                0      0       0      19        0.0%
BITSFR19             0      0       0      20        0.0%
SFR19                0      0       0      20        0.0%
ABS                  0      0      4B      20        0.0%
BITBANK8            50      0       0      21        0.0%
BITSFR20             0      0       0      21        0.0%
SFR20                0      0       0      21        0.0%
BANK8               50      0       0      22        0.0%
BITSFR21             0      0       0      22        0.0%
SFR21                0      0       0      22        0.0%
BITBANK9            50      0       0      23        0.0%
BITSFR22             0      0       0      23        0.0%
SFR22                0      0       0      23        0.0%
BANK9               50      0       0      24        0.0%
BITSFR23             0      0       0      24        0.0%
SFR23                0      0       0      24        0.0%
BITBANK10           50      0       0      25        0.0%
BITSFR24             0      0       0      25        0.0%
SFR24                0      0       0      25        0.0%
BANK10              50      0       0      26        0.0%
BITSFR25             0      0       0      26        0.0%
SFR25                0      0       0      26        0.0%
BITBANK11           50      0       0      27        0.0%
BITSFR26             0      0       0      27        0.0%
SFR26                0      0       0      27        0.0%
BANK11              50      0       0      28        0.0%
BITSFR27             0      0       0      28        0.0%
SFR27                0      0       0      28        0.0%
BITBANK12           30      0       0      29        0.0%
BITSFR28             0      0       0      29        0.0%
SFR28                0      0       0      29        0.0%
BANK12              30      0       0      30        0.0%
BITSFR29             0      0       0      30        0.0%
SFR29                0      0       0      30        0.0%
BITSFR30             0      0       0      31        0.0%
SFR30                0      0       0      31        0.0%
DATA                 0      0      4B      31        0.0%
BITSFR31             0      0       0      32        0.0%
SFR31                0      0       0      32        0.0%


Microchip Technology PIC Macro Assembler V1.33 build 59893 
Symbol Table                                                                                   Mon Mar 02 16:40:18 2015

            __CFG_CP$OFF 0000              _SSPSTATbits 0214                       l44 053C  
                     l79 0639                       u95 0624                       _ip 002C  
                    l712 0755                      l730 07E0                      l706 0748  
                    l742 054F                      l664 061E                      l680 0676  
                    l678 0660                      l696 070F                      u207 07E3  
                    u217 063D                      u157 055E                      u167 0567  
                    u177 0646                      u187 065B                      u197 0670  
                    _mac 0020                      _spi 0537             __CFG_BORV$LO 0000  
           __CFG_LVP$OFF 0000                     ?_spi 0070             __CFG_WRT$OFF 0000  
            _source_port 0044                     _main 054C                     fsr0h 0005  
                   fsr1h 0007                     fsr0l 0004                     fsr1l 0006  
                   btemp 007E                     ltemp 007E                     start 0002  
                   ttemp 007E                     wtemp 007E            __CFG_IESO$OFF 0000  
                  ??_spi 0072    __size_of_wiz_reg_read 0037                    ?_main 004F  
          __CFG_WDTE$OFF 0000           __CFG_FCMEN$OFF 0000           __CFG_BOREN$OFF 0000  
                  ltemp0 007E                    ltemp1 0082                    ltemp2 0086  
                  ltemp3 0080                    ttemp0 007E                    ttemp1 0081  
                  ttemp2 0084                    ttemp3 0087                    ttemp4 007F  
                  wtemp0 007E                    wtemp1 0080                    wtemp2 0082  
                  wtemp3 0084                    wtemp4 0086                    wtemp5 0088  
                  wtemp6 007F             _wiz_reg_read 05C0           __CFG_MCLRE$OFF 0000  
        __initialization 07E9             __end_of_main 056B           __CFG_LPBOR$OFF 0000  
                 ??_main 0053         wiz_write@addr_hi 0076         wiz_write@addr_lo 0078  
    __CFG_USBLSCLK$48MHz 0000   __size_of_wiz_reg_write 002D                   _SSPBUF 0211  
         __CFG_PWRTE$OFF 0000           __CFG_STVREN$ON 0000                   _config 052B  
                 _subnet 003C         __end_of_wiz_init 07E9  __end_of__initialization 07FC  
           ?_port_config 0070            _wiz_reg_write 0593           __pcstackCOMMON 0070  
           __pidataBANK0 056B      wiz_reg_read@addr_hi 0076      wiz_reg_read@addr_lo 0078  
       wiz_reg_read@miso 007A               __pbssBANK0 0055           ?_wiz_reg_write 0076  
             __pmaintext 054C          __CFG_PLLMULT$3x 0000                  ?_config 0070  
                _OSCSTAT 009A             wiz_init@sock 004D       __size_of_wiz_write 004A  
        __size_of_config 000C                ?_wiz_init 0070                  __ptext1 052B  
                __ptext2 0641                  __ptext3 05F7                  __ptext4 0593  
                __ptext5 05C0                  __ptext6 0537                  __ptext7 050F  
                __ptext8 0521                  __ptext9 0517                  _gateway 0055  
           __size_of_spi 0015     end_of_initialization 07FC          ??_wiz_reg_write 007C  
                init_ram 0509                  initloop 050A               _osc_config 0517  
       __CFG_CLKOUTEN$ON 0000                  spi@miso 0074                  spi@mosi 0070  
   __size_of_port_config 000A               ??_wiz_init 004A               _spi_config 050F  
      __end_of_wiz_write 0641         __CFG_FOSC$INTOSC 0000                _TRISAbits 008C  
              _TRISCbits 008E       __CFG_PLLEN$ENABLED 0000           __end_of_config 0537  
    start_initialization 07E9              __end_of_spi 054C          wiz_write@length 007B  
            ?_osc_config 0070                 ??_config 007E              __pdataBANK0 0020  
            ?_spi_config 0070                ___latbits 0002            __pcstackBANK0 0048  
          ?_wiz_reg_read 0076      __size_of_osc_config 000A        __size_of_wiz_init 01A8  
   wiz_reg_write@addr_hi 0076     wiz_reg_write@addr_lo 0078        wiz_reg_write@mosi 007A  
               _LATCbits 010E           ??_wiz_reg_read 007A      __size_of_spi_config 0008  
               _PIR1bits 0011                _source_ip 0034                _wiz_write 05F7  
          ??_port_config 0070    __end_of_wiz_reg_write 05C0               ?_wiz_write 0076  
           ??_osc_config 0070            __size_of_main 001F               wiz_write@i 0048  
    __end_of_port_config 052B                 main@argc 004F                 main@argv 0051  
               _wiz_init 0641             ??_spi_config 0070     __end_of_wiz_reg_read 05F7  
            _OSCTUNEbits 0098       __end_of_osc_config 0521            wiz_write@mosi 007A  
            pic14e$flags 007E                wiz_init@i 004B       __end_of_spi_config 0517  
             _OSCCONbits 0099     __CFG_CPUDIV$NOCLKDIV 0000              ??_wiz_write 007D  
            _port_config 0521               _SSPCONbits 0215  
