

Microchip Technology PIC LITE Macro Assembler V1.33 build 59893 
                                                                                               Fri Feb 20 16:45:08 2015

Microchip Technology Omniscient Code Generator (Lite mode) build 59893
     1                           	processor	16F1454
     2                           	opt	pw 120
     3                           	opt	lm
     4                           	psect	text0,local,class=CODE,merge=1,delta=2
     5                           	psect	cinit,global,class=CODE,merge=1,delta=2
     6                           	psect	cstackBANK1,global,class=BANK1,space=1,delta=1
     7                           	psect	cstackCOMMON,global,class=COMMON,space=1,delta=1
     8                           	psect	cstackBANK0,global,class=BANK0,space=1,delta=1
     9                           	psect	maintext,global,class=CODE,merge=1,split=1,delta=2
    10                           	psect	text1,local,class=CODE,merge=1,delta=2
    11                           	psect	text2,local,class=CODE,merge=1,delta=2
    12                           	psect	text3,local,class=CODE,merge=1,delta=2
    13                           	psect	text4,local,class=CODE,merge=1,delta=2
    14                           	psect	text5,local,class=CODE,merge=1,delta=2
    15                           	psect	text6,local,class=CODE,merge=1,delta=2
    16                           	psect	text7,local,class=CODE,merge=1,delta=2
    17                           	dabs	1,0x7E,2
    18  0000                     	;# 
    19  0001                     	;# 
    20  0002                     	;# 
    21  0003                     	;# 
    22  0004                     	;# 
    23  0005                     	;# 
    24  0006                     	;# 
    25  0007                     	;# 
    26  0008                     	;# 
    27  0009                     	;# 
    28  000A                     	;# 
    29  000B                     	;# 
    30  000C                     	;# 
    31  000E                     	;# 
    32  0011                     	;# 
    33  0012                     	;# 
    34  0015                     	;# 
    35  0016                     	;# 
    36  0016                     	;# 
    37  0017                     	;# 
    38  0018                     	;# 
    39  0019                     	;# 
    40  001A                     	;# 
    41  001B                     	;# 
    42  001C                     	;# 
    43  008C                     	;# 
    44  008E                     	;# 
    45  0091                     	;# 
    46  0092                     	;# 
    47  0095                     	;# 
    48  0096                     	;# 
    49  0097                     	;# 
    50  0098                     	;# 
    51  0099                     	;# 
    52  009A                     	;# 
    53  010C                     	;# 
    54  010E                     	;# 
    55  0116                     	;# 
    56  0117                     	;# 
    57  011D                     	;# 
    58  018C                     	;# 
    59  018E                     	;# 
    60  0191                     	;# 
    61  0191                     	;# 
    62  0192                     	;# 
    63  0193                     	;# 
    64  0193                     	;# 
    65  0194                     	;# 
    66  0195                     	;# 
    67  0196                     	;# 
    68  0197                     	;# 
    69  0199                     	;# 
    70  019A                     	;# 
    71  019B                     	;# 
    72  019B                     	;# 
    73  019C                     	;# 
    74  019D                     	;# 
    75  019E                     	;# 
    76  019F                     	;# 
    77  020C                     	;# 
    78  0211                     	;# 
    79  0211                     	;# 
    80  0212                     	;# 
    81  0212                     	;# 
    82  0213                     	;# 
    83  0213                     	;# 
    84  0214                     	;# 
    85  0214                     	;# 
    86  0215                     	;# 
    87  0215                     	;# 
    88  0215                     	;# 
    89  0216                     	;# 
    90  0216                     	;# 
    91  0217                     	;# 
    92  0217                     	;# 
    93  0391                     	;# 
    94  0392                     	;# 
    95  0393                     	;# 
    96  039A                     	;# 
    97  039B                     	;# 
    98  0611                     	;# 
    99  0612                     	;# 
   100  0613                     	;# 
   101  0613                     	;# 
   102  0614                     	;# 
   103  0615                     	;# 
   104  0616                     	;# 
   105  0616                     	;# 
   106  0E8E                     	;# 
   107  0E8F                     	;# 
   108  0E90                     	;# 
   109  0E91                     	;# 
   110  0E92                     	;# 
   111  0E93                     	;# 
   112  0E94                     	;# 
   113  0E94                     	;# 
   114  0E95                     	;# 
   115  0E96                     	;# 
   116  0E97                     	;# 
   117  0E98                     	;# 
   118  0E99                     	;# 
   119  0E9A                     	;# 
   120  0E9B                     	;# 
   121  0E9C                     	;# 
   122  0E9D                     	;# 
   123  0E9E                     	;# 
   124  0E9F                     	;# 
   125  0FE4                     	;# 
   126  0FE5                     	;# 
   127  0FE6                     	;# 
   128  0FE7                     	;# 
   129  0FE8                     	;# 
   130  0FE9                     	;# 
   131  0FEA                     	;# 
   132  0FEB                     	;# 
   133  0FED                     	;# 
   134  0FEE                     	;# 
   135  0FEF                     	;# 
   136  0000                     	;# 
   137  0001                     	;# 
   138  0002                     	;# 
   139  0003                     	;# 
   140  0004                     	;# 
   141  0005                     	;# 
   142  0006                     	;# 
   143  0007                     	;# 
   144  0008                     	;# 
   145  0009                     	;# 
   146  000A                     	;# 
   147  000B                     	;# 
   148  000C                     	;# 
   149  000E                     	;# 
   150  0011                     	;# 
   151  0012                     	;# 
   152  0015                     	;# 
   153  0016                     	;# 
   154  0016                     	;# 
   155  0017                     	;# 
   156  0018                     	;# 
   157  0019                     	;# 
   158  001A                     	;# 
   159  001B                     	;# 
   160  001C                     	;# 
   161  008C                     	;# 
   162  008E                     	;# 
   163  0091                     	;# 
   164  0092                     	;# 
   165  0095                     	;# 
   166  0096                     	;# 
   167  0097                     	;# 
   168  0098                     	;# 
   169  0099                     	;# 
   170  009A                     	;# 
   171  010C                     	;# 
   172  010E                     	;# 
   173  0116                     	;# 
   174  0117                     	;# 
   175  011D                     	;# 
   176  018C                     	;# 
   177  018E                     	;# 
   178  0191                     	;# 
   179  0191                     	;# 
   180  0192                     	;# 
   181  0193                     	;# 
   182  0193                     	;# 
   183  0194                     	;# 
   184  0195                     	;# 
   185  0196                     	;# 
   186  0197                     	;# 
   187  0199                     	;# 
   188  019A                     	;# 
   189  019B                     	;# 
   190  019B                     	;# 
   191  019C                     	;# 
   192  019D                     	;# 
   193  019E                     	;# 
   194  019F                     	;# 
   195  020C                     	;# 
   196  0211                     	;# 
   197  0211                     	;# 
   198  0212                     	;# 
   199  0212                     	;# 
   200  0213                     	;# 
   201  0213                     	;# 
   202  0214                     	;# 
   203  0214                     	;# 
   204  0215                     	;# 
   205  0215                     	;# 
   206  0215                     	;# 
   207  0216                     	;# 
   208  0216                     	;# 
   209  0217                     	;# 
   210  0217                     	;# 
   211  0391                     	;# 
   212  0392                     	;# 
   213  0393                     	;# 
   214  039A                     	;# 
   215  039B                     	;# 
   216  0611                     	;# 
   217  0612                     	;# 
   218  0613                     	;# 
   219  0613                     	;# 
   220  0614                     	;# 
   221  0615                     	;# 
   222  0616                     	;# 
   223  0616                     	;# 
   224  0E8E                     	;# 
   225  0E8F                     	;# 
   226  0E90                     	;# 
   227  0E91                     	;# 
   228  0E92                     	;# 
   229  0E93                     	;# 
   230  0E94                     	;# 
   231  0E94                     	;# 
   232  0E95                     	;# 
   233  0E96                     	;# 
   234  0E97                     	;# 
   235  0E98                     	;# 
   236  0E99                     	;# 
   237  0E9A                     	;# 
   238  0E9B                     	;# 
   239  0E9C                     	;# 
   240  0E9D                     	;# 
   241  0E9E                     	;# 
   242  0E9F                     	;# 
   243  0FE4                     	;# 
   244  0FE5                     	;# 
   245  0FE6                     	;# 
   246  0FE7                     	;# 
   247  0FE8                     	;# 
   248  0FE9                     	;# 
   249  0FEA                     	;# 
   250  0FEB                     	;# 
   251  0FED                     	;# 
   252  0FEE                     	;# 
   253  0FEF                     	;# 
   254  0000                     	;# 
   255  0001                     	;# 
   256  0002                     	;# 
   257  0003                     	;# 
   258  0004                     	;# 
   259  0005                     	;# 
   260  0006                     	;# 
   261  0007                     	;# 
   262  0008                     	;# 
   263  0009                     	;# 
   264  000A                     	;# 
   265  000B                     	;# 
   266  000C                     	;# 
   267  000E                     	;# 
   268  0011                     	;# 
   269  0012                     	;# 
   270  0015                     	;# 
   271  0016                     	;# 
   272  0016                     	;# 
   273  0017                     	;# 
   274  0018                     	;# 
   275  0019                     	;# 
   276  001A                     	;# 
   277  001B                     	;# 
   278  001C                     	;# 
   279  008C                     	;# 
   280  008E                     	;# 
   281  0091                     	;# 
   282  0092                     	;# 
   283  0095                     	;# 
   284  0096                     	;# 
   285  0097                     	;# 
   286  0098                     	;# 
   287  0099                     	;# 
   288  009A                     	;# 
   289  010C                     	;# 
   290  010E                     	;# 
   291  0116                     	;# 
   292  0117                     	;# 
   293  011D                     	;# 
   294  018C                     	;# 
   295  018E                     	;# 
   296  0191                     	;# 
   297  0191                     	;# 
   298  0192                     	;# 
   299  0193                     	;# 
   300  0193                     	;# 
   301  0194                     	;# 
   302  0195                     	;# 
   303  0196                     	;# 
   304  0197                     	;# 
   305  0199                     	;# 
   306  019A                     	;# 
   307  019B                     	;# 
   308  019B                     	;# 
   309  019C                     	;# 
   310  019D                     	;# 
   311  019E                     	;# 
   312  019F                     	;# 
   313  020C                     	;# 
   314  0211                     	;# 
   315  0211                     	;# 
   316  0212                     	;# 
   317  0212                     	;# 
   318  0213                     	;# 
   319  0213                     	;# 
   320  0214                     	;# 
   321  0214                     	;# 
   322  0215                     	;# 
   323  0215                     	;# 
   324  0215                     	;# 
   325  0216                     	;# 
   326  0216                     	;# 
   327  0217                     	;# 
   328  0217                     	;# 
   329  0391                     	;# 
   330  0392                     	;# 
   331  0393                     	;# 
   332  039A                     	;# 
   333  039B                     	;# 
   334  0611                     	;# 
   335  0612                     	;# 
   336  0613                     	;# 
   337  0613                     	;# 
   338  0614                     	;# 
   339  0615                     	;# 
   340  0616                     	;# 
   341  0616                     	;# 
   342  0E8E                     	;# 
   343  0E8F                     	;# 
   344  0E90                     	;# 
   345  0E91                     	;# 
   346  0E92                     	;# 
   347  0E93                     	;# 
   348  0E94                     	;# 
   349  0E94                     	;# 
   350  0E95                     	;# 
   351  0E96                     	;# 
   352  0E97                     	;# 
   353  0E98                     	;# 
   354  0E99                     	;# 
   355  0E9A                     	;# 
   356  0E9B                     	;# 
   357  0E9C                     	;# 
   358  0E9D                     	;# 
   359  0E9E                     	;# 
   360  0E9F                     	;# 
   361  0FE4                     	;# 
   362  0FE5                     	;# 
   363  0FE6                     	;# 
   364  0FE7                     	;# 
   365  0FE8                     	;# 
   366  0FE9                     	;# 
   367  0FEA                     	;# 
   368  0FEB                     	;# 
   369  0FED                     	;# 
   370  0FEE                     	;# 
   371  0FEF                     	;# 
   372  0011                     _PIR1bits	set	17
   373  0099                     _OSCCONbits	set	153
   374  008C                     _TRISAbits	set	140
   375  008E                     _TRISCbits	set	142
   376  010E                     _LATCbits	set	270
   377  0211                     _SSPBUF	set	529
   378  0215                     _SSPCONbits	set	533
   379  0214                     _SSPSTATbits	set	532
   380                           
   381                           	psect	text0
   382  0000                     __ptext0:	
   383                           ; #config settings
   384                           
   385                           
   386                           ;psect for function _spi_setup
   387  0000                     
   388                           	psect	cinit
   389  07FC                     start_initialization:	
   390  07FC                     __initialization:	
   391  07FC                     end_of_initialization:	
   392                           ;End of C runtime variable initialization code
   393                           
   394  07FC                     __end_of__initialization:	
   395  07FC  107E               	bcf	pic14e$flags,0	;clear compiler interrupt flag
   396  07FD  0020               	movlb	0
   397  07FE  3184  2CD2         	ljmp	_main	;jump to C main() function
   398                           
   399                           	psect	cstackBANK1
   400  00A0                     __pcstackBANK1:	
   401  00A0                     config@i:	
   402                           
   403                           ; 2 bytes @ 0x0
   404  00A0                     	ds	2
   405  00A2                     config@spi_conf:	
   406                           
   407                           ; 10 bytes @ 0x2
   408  00A2                     	ds	10
   409  00AC                     config@wiz_conf:	
   410                           
   411                           ; 48 bytes @ 0xC
   412  00AC                     	ds	48
   413                           
   414                           	psect	cstackCOMMON
   415  0070                     __pcstackCOMMON:	
   416  0070                     ?_spi_setup:	
   417  0070                     ?_config:	
   418                           ; 0 bytes @ 0x0
   419                           
   420  0070                     ?_spi:	
   421                           ; 0 bytes @ 0x0
   422                           
   423  0070                     spi@mosi:	
   424                           ; 2 bytes @ 0x0
   425                           
   426  0070                     spi_setup@conf:	
   427                           ; 2 bytes @ 0x0
   428                           
   429                           
   430                           ; 10 bytes @ 0x0
   431  0070                     	ds	2
   432  0072                     ??_spi:	
   433                           
   434                           ; 0 bytes @ 0x2
   435  0072                     	ds	2
   436  0074                     spi@miso:	
   437                           
   438                           ; 2 bytes @ 0x4
   439  0074                     	ds	2
   440  0076                     ?_wiz_reg_write:	
   441  0076                     ?_wiz_write:	
   442                           ; 0 bytes @ 0x6
   443                           
   444  0076                     ?_wiz_reg_read:	
   445                           ; 0 bytes @ 0x6
   446                           
   447  0076                     wiz_reg_read@addr_hi:	
   448                           ; 2 bytes @ 0x6
   449                           
   450  0076                     wiz_reg_write@addr_hi:	
   451                           ; 2 bytes @ 0x6
   452                           
   453  0076                     wiz_write@addr_hi:	
   454                           ; 2 bytes @ 0x6
   455                           
   456                           
   457                           ; 2 bytes @ 0x6
   458  0076                     	ds	2
   459  0078                     wiz_reg_read@addr_lo:	
   460  0078                     wiz_reg_write@addr_lo:	
   461                           ; 2 bytes @ 0x8
   462                           
   463  0078                     wiz_write@addr_lo:	
   464                           ; 2 bytes @ 0x8
   465                           
   466                           
   467                           ; 2 bytes @ 0x8
   468  0078                     	ds	2
   469  007A                     ??_spi_setup:	
   470  007A                     ??_wiz_reg_read:	
   471                           ; 0 bytes @ 0xA
   472                           
   473  007A                     wiz_write@mosi:	
   474                           ; 0 bytes @ 0xA
   475                           
   476  007A                     wiz_reg_read@miso:	
   477                           ; 1 bytes @ 0xA
   478                           
   479  007A                     wiz_reg_write@mosi:	
   480                           ; 2 bytes @ 0xA
   481                           
   482                           
   483                           ; 2 bytes @ 0xA
   484  007A                     	ds	1
   485  007B                     wiz_write@length:	
   486                           
   487                           ; 2 bytes @ 0xB
   488  007B                     	ds	1
   489  007C                     ??_wiz_reg_write:	
   490                           
   491                           ; 0 bytes @ 0xC
   492  007C                     	ds	1
   493  007D                     ??_wiz_write:	
   494                           
   495                           ; 0 bytes @ 0xD
   496  007D                     	ds	1
   497                           
   498                           	psect	cstackBANK0
   499  0020                     __pcstackBANK0:	
   500  0020                     wiz_write@i:	
   501                           
   502                           ; 2 bytes @ 0x0
   503  0020                     	ds	2
   504  0022                     ?_wiz_init:	
   505  0022                     wiz_init@conf:	
   506                           ; 0 bytes @ 0x2
   507                           
   508                           
   509                           ; 48 bytes @ 0x2
   510  0022                     	ds	48
   511  0052                     ??_wiz_init:	
   512                           
   513                           ; 0 bytes @ 0x32
   514  0052                     	ds	1
   515  0053                     wiz_init@i:	
   516                           
   517                           ; 2 bytes @ 0x33
   518  0053                     	ds	2
   519  0055                     wiz_init@sock:	
   520                           
   521                           ; 2 bytes @ 0x35
   522  0055                     	ds	2
   523  0057                     ??_config:	
   524                           
   525                           ; 0 bytes @ 0x37
   526  0057                     	ds	1
   527  0058                     ?_main:	
   528  0058                     main@argc:	
   529                           ; 2 bytes @ 0x38
   530                           
   531                           
   532                           ; 2 bytes @ 0x38
   533  0058                     	ds	2
   534  005A                     main@argv:	
   535                           
   536                           ; 2 bytes @ 0x3A
   537  005A                     	ds	2
   538  005C                     ??_main:	
   539                           
   540                           ; 0 bytes @ 0x3C
   541  005C                     	ds	1
   542                           
   543                           	psect	maintext
   544  04D2                     __pmaintext:	
   545 ;;
   546 ;;Main: autosize = 0, tempsize = 1, incstack = 0, save=0
   547 ;;
   548 ;; *************** function _main *****************
   549 ;; Defined at:
   550 ;;		line 107 in file "main.c"
   551 ;; Parameters:    Size  Location     Type
   552 ;;  argc            2   56[BANK0 ] int 
   553 ;;  argv            2   58[BANK0 ] PTR PTR unsigned char 
   554 ;; Auto vars:     Size  Location     Type
   555 ;;		None
   556 ;; Return value:  Size  Location     Type
   557 ;;                  2   56[BANK0 ] int 
   558 ;; Registers used:
   559 ;;		wreg, fsr0l, fsr0h, fsr1l, fsr1h, status,2, status,0, pclath, cstack
   560 ;; Tracked objects:
   561 ;;		On entry : 17F/0
   562 ;;		On exit  : 0/0
   563 ;;		Unchanged: 0/0
   564 ;; Data sizes:     COMMON   BANK0   BANK1   BANK2   BANK3   BANK4   BANK5   BANK6   BANK7   BANK8   BANK9  BANK10  BANK1
      +1  BANK12
   565 ;;      Params:         0       4       0       0       0       0       0       0       0       0       0       0       
      +0       0
   566 ;;      Locals:         0       0       0       0       0       0       0       0       0       0       0       0       
      +0       0
   567 ;;      Temps:          0       1       0       0       0       0       0       0       0       0       0       0       
      +0       0
   568 ;;      Totals:         0       5       0       0       0       0       0       0       0       0       0       0       
      +0       0
   569 ;;Total ram usage:        5 bytes
   570 ;; Hardware stack levels required when called:    4
   571 ;; This function calls:
   572 ;;		_config
   573 ;;		_spi
   574 ;; This function is called by:
   575 ;;		Startup code after reset
   576 ;; This function uses a non-reentrant model
   577 ;;
   578                           
   579                           
   580                           ;psect for function _main
   581  04D2                     _main:	
   582                           
   583                           ;main.c: 109: config();
   584                           
   585                           ;incstack = 0
   586                           ; Regs used in _main: [wreg-fsr1h+status,2+status,0+pclath+cstack]
   587  04D2  3185  25AB  3184   	fcall	_config
   588  04D5                     l828:	
   589                           ;main.c: 111: while (1) {
   590                           
   591                           
   592                           ;main.c: 112: LATCbits.LATC3 = 0;
   593  04D5  0022               	movlb	2	; select bank2
   594  04D6  118E               	bcf	14,3	;volatile
   595                           
   596                           ;main.c: 113: spi(0x55);
   597  04D7  3055               	movlw	85
   598  04D8  00F0               	movwf	spi@mosi
   599  04D9  3000               	movlw	0
   600  04DA  00F1               	movwf	spi@mosi+1
   601  04DB  3184  24BD  3184   	fcall	_spi
   602                           
   603                           ;main.c: 114: LATCbits.LATC3 = 1;
   604  04DE  0022               	movlb	2	; select bank2
   605  04DF  158E               	bsf	14,3	;volatile
   606                           
   607                           ;main.c: 115: _delay((unsigned long)((10)*(48000000/4000000.0)));
   608  04E0  3027               	movlw	39
   609  04E1  0020               	movlb	0	; select bank0
   610  04E2  00DC               	movwf	??_main
   611  04E3                     u237:	
   612  04E3  0BDC               	decfsz	??_main,f
   613  04E4  2CE3               	goto	u237
   614  04E5  3200               	nop2	;nop
   615  04E6  2CD5               	goto	l828
   616  04E7                     __end_of_main:	
   617                           ;main.c: 116: }
   618                           ;main.c: 118: return (0);
   619                           ;	Return value of _main is never used
   620                           
   621                           
   622                           	psect	text1
   623  05AB                     __ptext1:	
   624 ;; *************** function _config *****************
   625 ;; Defined at:
   626 ;;		line 40 in file "main.c"
   627 ;; Parameters:    Size  Location     Type
   628 ;;		None
   629 ;; Auto vars:     Size  Location     Type
   630 ;;  i               2    0[BANK1 ] int 
   631 ;;  wiz_conf       48   12[BANK1 ] struct wiz_conf_t
   632 ;;  spi_conf       10    2[BANK1 ] struct spi_conf_t
   633 ;; Return value:  Size  Location     Type
   634 ;;		None               void
   635 ;; Registers used:
   636 ;;		wreg, fsr0l, fsr0h, fsr1l, fsr1h, status,2, status,0, pclath, cstack
   637 ;; Tracked objects:
   638 ;;		On entry : 0/0
   639 ;;		On exit  : 0/0
   640 ;;		Unchanged: 0/0
   641 ;; Data sizes:     COMMON   BANK0   BANK1   BANK2   BANK3   BANK4   BANK5   BANK6   BANK7   BANK8   BANK9  BANK10  BANK1
      +1  BANK12
   642 ;;      Params:         0       0       0       0       0       0       0       0       0       0       0       0       
      +0       0
   643 ;;      Locals:         0       0      60       0       0       0       0       0       0       0       0       0       
      +0       0
   644 ;;      Temps:          0       1       0       0       0       0       0       0       0       0       0       0       
      +0       0
   645 ;;      Totals:         0       1      60       0       0       0       0       0       0       0       0       0       
      +0       0
   646 ;;Total ram usage:       61 bytes
   647 ;; Hardware stack levels used:    1
   648 ;; Hardware stack levels required when called:    3
   649 ;; This function calls:
   650 ;;		_spi_setup
   651 ;;		_wiz_init
   652 ;; This function is called by:
   653 ;;		_main
   654 ;; This function uses a non-reentrant model
   655 ;;
   656                           
   657                           
   658                           ;psect for function _config
   659  05AB                     _config:	
   660                           
   661                           ;main.c: 44: OSCCONbits.IRCF = 0x0F;
   662                           
   663                           ;incstack = 0
   664                           ; Regs used in _config: [wreg-fsr1h+status,2+status,0+pclath+cstack]
   665  05AB  303C               	movlw	60
   666  05AC  0021               	movlb	1	; select bank1
   667  05AD  0499               	iorwf	25,f	;volatile
   668                           
   669                           ;main.c: 45: OSCCONbits.SCS = 0x00;
   670  05AE  30FC               	movlw	-4
   671  05AF  0599               	andwf	25,f	;volatile
   672                           
   673                           ;main.c: 46: OSCCONbits.SPLLEN = 0x01;
   674  05B0  1799               	bsf	25,7	;volatile
   675                           
   676                           ;main.c: 47: OSCCONbits.SPLLMULT = 0x01;
   677  05B1  1719               	bsf	25,6	;volatile
   678                           
   679                           ;main.c: 51: TRISCbits.TRISC0 = 0;
   680  05B2  100E               	bcf	14,0	;volatile
   681                           
   682                           ;main.c: 52: TRISCbits.TRISC1 = 1;
   683  05B3  148E               	bsf	14,1	;volatile
   684                           
   685                           ;main.c: 53: TRISCbits.TRISC2 = 0;
   686  05B4  110E               	bcf	14,2	;volatile
   687                           
   688                           ;main.c: 56: TRISCbits.TRISC4 = 0;
   689  05B5  120E               	bcf	14,4	;volatile
   690                           
   691                           ;main.c: 57: TRISCbits.TRISC5 = 0;
   692  05B6  128E               	bcf	14,5	;volatile
   693                           
   694                           ;main.c: 60: TRISCbits.TRISC3 = 0;
   695  05B7  118E               	bcf	14,3	;volatile
   696                           
   697                           ;main.c: 61: TRISAbits.TRISA4 = 0;
   698  05B8  120C               	bcf	12,4	;volatile
   699                           
   700                           ;main.c: 62: TRISAbits.TRISA5 = 1;
   701  05B9  168C               	bsf	12,5	;volatile
   702                           
   703                           ;main.c: 65: spi_conf_t spi_conf;
   704                           ;main.c: 66: spi_conf.CKE_bits = 0x00;
   705  05BA  01A6               	clrf	(config@spi_conf^(0+128)+4)
   706  05BB  01A7               	clrf	((config@spi_conf+1)^(0+128)+4)
   707                           
   708                           ;main.c: 67: spi_conf.CKP_bits = 0x00;
   709  05BC  01A4               	clrf	(config@spi_conf^(0+128)+2)
   710  05BD  01A5               	clrf	((config@spi_conf+1)^(0+128)+2)
   711                           
   712                           ;main.c: 68: spi_conf.SMP_bits = 0x01;
   713  05BE  3001               	movlw	1
   714  05BF  00A8               	movwf	(config@spi_conf^(0+128)+6)
   715  05C0  3000               	movlw	0
   716  05C1  00A9               	movwf	(config@spi_conf^(0+128)+7)
   717                           
   718                           ;main.c: 69: spi_conf.SSPEN_bits = 0x00;
   719  05C2  01AA               	clrf	(config@spi_conf^(0+128)+8)
   720  05C3  01AB               	clrf	((config@spi_conf+1)^(0+128)+8)
   721                           
   722                           ;main.c: 70: spi_conf.SSPM_bits = 0x01;
   723  05C4  3001               	movlw	1
   724  05C5  00A2               	movwf	config@spi_conf^(0+128)
   725  05C6  3000               	movlw	0
   726  05C7  00A3               	movwf	(config@spi_conf^(0+128)+1)
   727                           
   728                           ;main.c: 71: spi_setup(spi_conf);
   729  05C8  30A2               	movlw	low config@spi_conf
   730  05C9  0086               	movwf	6
   731  05CA  3000               	movlw	high config@spi_conf
   732  05CB  0087               	movwf	7
   733  05CC  3070               	movlw	low spi_setup@conf
   734  05CD  0084               	movwf	4
   735  05CE  3000               	movlw	high spi_setup@conf
   736  05CF  0085               	movwf	5
   737  05D0  300A               	movlw	10
   738  05D1  0020               	movlb	0	; select bank0
   739  05D2  00D7               	movwf	??_config
   740  05D3                     u190:	
   741  05D3  0016               	moviw fsr1++
   742  05D4  001A               	movwi fsr0++
   743  05D5  0BD7               	decfsz	??_config,f
   744  05D6  2DD3               	goto	u190
   745  05D7  3184  24E7  3185   	fcall	_spi_setup
   746                           
   747                           ;main.c: 74: wiz_conf_t wiz_conf;
   748                           ;main.c: 76: for(int i = 0; i<0x04; i++)
   749  05DA  0021               	movlb	1	; select bank1
   750  05DB  01A0               	clrf	config@i^(0+128)
   751  05DC  01A1               	clrf	(config@i+1)^(0+128)
   752  05DD  0821               	movf	(config@i+1)^(0+128),w
   753  05DE  3A80               	xorlw	128
   754  05DF  0020               	movlb	0	; select bank0
   755  05E0  00D7               	movwf	??_config
   756  05E1  3080               	movlw	128
   757  05E2  0257               	subwf	??_config,w
   758  05E3  1D03               	skipz
   759  05E4  2DE8               	goto	u205
   760  05E5  3004               	movlw	4
   761  05E6  0021               	movlb	1	; select bank1
   762  05E7  0220               	subwf	config@i^(0+128),w
   763  05E8                     u205:	
   764  05E8  1803               	btfsc	3,0
   765  05E9  2E03               	goto	l800
   766  05EA                     l794:	
   767                           
   768                           ;main.c: 77: wiz_conf.gateway[i] = 0x00;
   769  05EA  0021               	movlb	1	; select bank1
   770  05EB  3520               	lslf	config@i^(0+128),w
   771  05EC  3EAC               	addlw	config@wiz_conf& (0+255)
   772  05ED  0086               	movwf	6
   773  05EE  0187               	clrf	7
   774  05EF  3000               	movlw	0
   775  05F0  3FC0               	movwi [0]fsr1
   776  05F1  3FC1               	movwi [1]fsr1
   777  05F2  3001               	movlw	1
   778  05F3  07A0               	addwf	config@i^(0+128),f
   779  05F4  3000               	movlw	0
   780  05F5  3DA1               	addwfc	(config@i+1)^(0+128),f
   781  05F6  0821               	movf	(config@i+1)^(0+128),w
   782  05F7  3A80               	xorlw	128
   783  05F8  0020               	movlb	0	; select bank0
   784  05F9  00D7               	movwf	??_config
   785  05FA  3080               	movlw	128
   786  05FB  0257               	subwf	??_config,w
   787  05FC  1D03               	skipz
   788  05FD  2E01               	goto	u215
   789  05FE  3004               	movlw	4
   790  05FF  0021               	movlb	1	; select bank1
   791  0600  0220               	subwf	config@i^(0+128),w
   792  0601                     u215:	
   793  0601  1C03               	skipc
   794  0602  2DEA               	goto	l794
   795  0603                     l800:	
   796                           
   797                           ;main.c: 79: wiz_conf.ip[0] = 0xA9;
   798  0603  30A9               	movlw	169
   799  0604  0021               	movlb	1	; select bank1
   800  0605  00C8               	movwf	(config@wiz_conf^(0+128)+28)
   801  0606  3000               	movlw	0
   802  0607  00C9               	movwf	(config@wiz_conf^(0+128)+29)
   803                           
   804                           ;main.c: 80: wiz_conf.ip[1] = 0x80;
   805  0608  3080               	movlw	128
   806  0609  00CA               	movwf	(config@wiz_conf^(0+128)+30)
   807  060A  3000               	movlw	0
   808  060B  00CB               	movwf	(config@wiz_conf^(0+128)+31)
   809                           
   810                           ;main.c: 81: wiz_conf.ip[2] = 0x80;
   811  060C  3080               	movlw	128
   812  060D  00CC               	movwf	(config@wiz_conf^(0+128)+32)
   813  060E  3000               	movlw	0
   814  060F  00CD               	movwf	(config@wiz_conf^(0+128)+33)
   815                           
   816                           ;main.c: 82: wiz_conf.ip[3] = 0x82;
   817  0610  3082               	movlw	130
   818  0611  00CE               	movwf	(config@wiz_conf^(0+128)+34)
   819  0612  3000               	movlw	0
   820  0613  00CF               	movwf	(config@wiz_conf^(0+128)+35)
   821                           
   822                           ;main.c: 84: wiz_conf.mac[0] = 0x54;
   823  0614  3054               	movlw	84
   824  0615  00B4               	movwf	(config@wiz_conf^(0+128)+8)
   825  0616  3000               	movlw	0
   826  0617  00B5               	movwf	(config@wiz_conf^(0+128)+9)
   827                           
   828                           ;main.c: 85: wiz_conf.mac[1] = 0x52;
   829  0618  3052               	movlw	82
   830  0619  00B6               	movwf	(config@wiz_conf^(0+128)+10)
   831  061A  3000               	movlw	0
   832  061B  00B7               	movwf	(config@wiz_conf^(0+128)+11)
   833                           
   834                           ;main.c: 86: wiz_conf.mac[2] = 0x00;
   835  061C  01B8               	clrf	(config@wiz_conf^(0+128)+12)
   836  061D  01B9               	clrf	((config@wiz_conf+1)^(0+128)+12)
   837                           
   838                           ;main.c: 87: wiz_conf.mac[3] = 0x00;
   839  061E  01BA               	clrf	(config@wiz_conf^(0+128)+14)
   840  061F  01BB               	clrf	((config@wiz_conf+1)^(0+128)+14)
   841                           
   842                           ;main.c: 88: wiz_conf.mac[4] = 0xF8;
   843  0620  30F8               	movlw	248
   844  0621  00BC               	movwf	(config@wiz_conf^(0+128)+16)
   845  0622  3000               	movlw	0
   846  0623  00BD               	movwf	(config@wiz_conf^(0+128)+17)
   847                           
   848                           ;main.c: 89: wiz_conf.mac[5] = 0x01;
   849  0624  3001               	movlw	1
   850  0625  00BE               	movwf	(config@wiz_conf^(0+128)+18)
   851  0626  3000               	movlw	0
   852  0627  00BF               	movwf	(config@wiz_conf^(0+128)+19)
   853                           
   854                           ;main.c: 91: wiz_conf.subnet[0] = 0xFF;
   855  0628  30FF               	movlw	255
   856  0629  00C0               	movwf	(config@wiz_conf^(0+128)+20)
   857  062A  3000               	movlw	0
   858  062B  00C1               	movwf	(config@wiz_conf^(0+128)+21)
   859                           
   860                           ;main.c: 92: wiz_conf.subnet[1] = 0x00;
   861  062C  01C2               	clrf	(config@wiz_conf^(0+128)+22)
   862  062D  01C3               	clrf	((config@wiz_conf+1)^(0+128)+22)
   863                           
   864                           ;main.c: 93: wiz_conf.subnet[2] = 0x00;
   865  062E  01C4               	clrf	(config@wiz_conf^(0+128)+24)
   866  062F  01C5               	clrf	((config@wiz_conf+1)^(0+128)+24)
   867                           
   868                           ;main.c: 94: wiz_conf.subnet[3] = 0x00;
   869  0630  01C6               	clrf	(config@wiz_conf^(0+128)+26)
   870  0631  01C7               	clrf	((config@wiz_conf+1)^(0+128)+26)
   871                           
   872                           ;main.c: 96: wiz_conf.source_ip[0] = 0xA9;
   873  0632  30A9               	movlw	169
   874  0633  00D0               	movwf	(config@wiz_conf^(0+128)+36)
   875  0634  3000               	movlw	0
   876  0635  00D1               	movwf	(config@wiz_conf^(0+128)+37)
   877                           
   878                           ;main.c: 97: wiz_conf.source_ip[1] = 0x80;
   879  0636  3080               	movlw	128
   880  0637  00D2               	movwf	(config@wiz_conf^(0+128)+38)
   881  0638  3000               	movlw	0
   882  0639  00D3               	movwf	(config@wiz_conf^(0+128)+39)
   883                           
   884                           ;main.c: 98: wiz_conf.source_ip[2] = 0x80;
   885  063A  3080               	movlw	128
   886  063B  00D4               	movwf	(config@wiz_conf^(0+128)+40)
   887  063C  3000               	movlw	0
   888  063D  00D5               	movwf	(config@wiz_conf^(0+128)+41)
   889                           
   890                           ;main.c: 99: wiz_conf.source_ip[3] = 0x81;
   891  063E  3081               	movlw	129
   892  063F  00D6               	movwf	(config@wiz_conf^(0+128)+42)
   893  0640  3000               	movlw	0
   894  0641  00D7               	movwf	(config@wiz_conf^(0+128)+43)
   895                           
   896                           ;main.c: 101: wiz_conf.source_port[0] = 0x13;
   897  0642  3013               	movlw	19
   898  0643  00D8               	movwf	(config@wiz_conf^(0+128)+44)
   899  0644  3000               	movlw	0
   900  0645  00D9               	movwf	(config@wiz_conf^(0+128)+45)
   901                           
   902                           ;main.c: 102: wiz_conf.source_port[1] = 0x88;
   903  0646  3088               	movlw	136
   904  0647  00DA               	movwf	(config@wiz_conf^(0+128)+46)
   905  0648  3000               	movlw	0
   906  0649  00DB               	movwf	(config@wiz_conf^(0+128)+47)
   907                           
   908                           ;main.c: 104: wiz_init(wiz_conf);
   909  064A  30AC               	movlw	low config@wiz_conf
   910  064B  0086               	movwf	6
   911  064C  3000               	movlw	high config@wiz_conf
   912  064D  0087               	movwf	7
   913  064E  3022               	movlw	low wiz_init@conf
   914  064F  0084               	movwf	4
   915  0650  3000               	movlw	high wiz_init@conf
   916  0651  0085               	movwf	5
   917  0652  3030               	movlw	48
   918  0653  0020               	movlb	0	; select bank0
   919  0654  00D7               	movwf	??_config
   920  0655                     u220:	
   921  0655  0016               	moviw fsr1++
   922  0656  001A               	movwi fsr0++
   923  0657  0BD7               	decfsz	??_config,f
   924  0658  2E55               	goto	u220
   925  0659  3186  265C         	fcall	_wiz_init
   926  065B  0008               	return
   927  065C                     __end_of_config:	
   928                           
   929                           	psect	text2
   930  065C                     __ptext2:	
   931 ;; *************** function _wiz_init *****************
   932 ;; Defined at:
   933 ;;		line 59 in file "pic16f145x_wiznet.c"
   934 ;; Parameters:    Size  Location     Type
   935 ;;  conf           48    2[BANK0 ] struct wiz_conf_t
   936 ;; Auto vars:     Size  Location     Type
   937 ;;  sock            2   53[BANK0 ] unsigned int 
   938 ;;  i               2   51[BANK0 ] int 
   939 ;; Return value:  Size  Location     Type
   940 ;;		None               void
   941 ;; Registers used:
   942 ;;		wreg, fsr1l, fsr1h, status,2, status,0, pclath, cstack
   943 ;; Tracked objects:
   944 ;;		On entry : 0/0
   945 ;;		On exit  : 0/0
   946 ;;		Unchanged: 0/0
   947 ;; Data sizes:     COMMON   BANK0   BANK1   BANK2   BANK3   BANK4   BANK5   BANK6   BANK7   BANK8   BANK9  BANK10  BANK1
      +1  BANK12
   948 ;;      Params:         0      48       0       0       0       0       0       0       0       0       0       0       
      +0       0
   949 ;;      Locals:         0       4       0       0       0       0       0       0       0       0       0       0       
      +0       0
   950 ;;      Temps:          0       1       0       0       0       0       0       0       0       0       0       0       
      +0       0
   951 ;;      Totals:         0      53       0       0       0       0       0       0       0       0       0       0       
      +0       0
   952 ;;Total ram usage:       53 bytes
   953 ;; Hardware stack levels used:    1
   954 ;; Hardware stack levels required when called:    2
   955 ;; This function calls:
   956 ;;		_wiz_reg_read
   957 ;;		_wiz_reg_write
   958 ;;		_wiz_write
   959 ;; This function is called by:
   960 ;;		_config
   961 ;; This function uses a non-reentrant model
   962 ;;
   963                           
   964                           
   965                           ;psect for function _wiz_init
   966  065C                     _wiz_init:	
   967                           
   968                           ;pic16f145x_wiznet.c: 61: wiz_reg_write(0x00, 0x00, 0x80);
   969                           
   970                           ;incstack = 0
   971                           ; Regs used in _wiz_init: [wreg+fsr1l+fsr1h+status,2+status,0+pclath+cstack]
   972  065C  3000               	movlw	0
   973  065D  00F6               	movwf	wiz_reg_write@addr_hi
   974  065E  3000               	movlw	0
   975  065F  00F7               	movwf	wiz_reg_write@addr_hi+1
   976  0660  3000               	movlw	0
   977  0661  00F8               	movwf	wiz_reg_write@addr_lo
   978  0662  3000               	movlw	0
   979  0663  00F9               	movwf	wiz_reg_write@addr_lo+1
   980  0664  3080               	movlw	128
   981  0665  00FA               	movwf	wiz_reg_write@mosi
   982  0666  3000               	movlw	0
   983  0667  00FB               	movwf	wiz_reg_write@mosi+1
   984  0668  3185  2502  3186   	fcall	_wiz_reg_write
   985                           
   986                           ;pic16f145x_wiznet.c: 62: _delay((unsigned long)((100)*(48000000/4000000.0)));
   987  066B  30EF               	movlw	239
   988  066C  0020               	movlb	0	; select bank0
   989  066D  00D2               	movwf	??_wiz_init
   990  066E                     u247:	
   991  066E  3200               	nop2
   992  066F  0BD2               	decfsz	??_wiz_init,f
   993  0670  2E6E               	goto	u247
   994  0671  3200               	nop2	;nop
   995  0672  3200               	nop2	;nop
   996  0673                     l700:	
   997                           ;pic16f145x_wiznet.c: 63: while (wiz_reg_read(0x00, 0x00) & 0x80)
   998                           
   999  0673  3000               	movlw	0
  1000  0674  00F6               	movwf	wiz_reg_read@addr_hi
  1001  0675  3000               	movlw	0
  1002  0676  00F7               	movwf	wiz_reg_read@addr_hi+1
  1003  0677  3000               	movlw	0
  1004  0678  00F8               	movwf	wiz_reg_read@addr_lo
  1005  0679  3000               	movlw	0
  1006  067A  00F9               	movwf	wiz_reg_read@addr_lo+1
  1007  067B  3185  252F  3186   	fcall	_wiz_reg_read
  1008  067E  1FF6               	btfss	?_wiz_reg_read,7
  1009  067F  2E89               	goto	l702
  1010                           
  1011                           ;pic16f145x_wiznet.c: 64: _delay((unsigned long)((100)*(48000000/4000000.0)));
  1012  0680  30EF               	movlw	239
  1013  0681  0020               	movlb	0	; select bank0
  1014  0682  00D2               	movwf	??_wiz_init
  1015  0683                     u257:	
  1016  0683  3200               	nop2
  1017  0684  0BD2               	decfsz	??_wiz_init,f
  1018  0685  2E83               	goto	u257
  1019  0686  3200               	nop2	;nop
  1020  0687  3200               	nop2	;nop
  1021  0688  2E73               	goto	l700
  1022  0689                     l702:	
  1023                           
  1024                           ;pic16f145x_wiznet.c: 67: wiz_reg_write(0x00, 0x16, 0x00);
  1025  0689  3000               	movlw	0
  1026  068A  00F6               	movwf	wiz_reg_write@addr_hi
  1027  068B  3000               	movlw	0
  1028  068C  00F7               	movwf	wiz_reg_write@addr_hi+1
  1029  068D  3016               	movlw	22
  1030  068E  00F8               	movwf	wiz_reg_write@addr_lo
  1031  068F  3000               	movlw	0
  1032  0690  00F9               	movwf	wiz_reg_write@addr_lo+1
  1033  0691  3000               	movlw	0
  1034  0692  00FA               	movwf	wiz_reg_write@mosi
  1035  0693  3000               	movlw	0
  1036  0694  00FB               	movwf	wiz_reg_write@mosi+1
  1037  0695  3185  2502  3186   	fcall	_wiz_reg_write
  1038                           
  1039                           ;pic16f145x_wiznet.c: 70: wiz_reg_write(0x00, 0x00, 0x00);
  1040  0698  3000               	movlw	0
  1041  0699  00F6               	movwf	wiz_reg_write@addr_hi
  1042  069A  3000               	movlw	0
  1043  069B  00F7               	movwf	wiz_reg_write@addr_hi+1
  1044  069C  3000               	movlw	0
  1045  069D  00F8               	movwf	wiz_reg_write@addr_lo
  1046  069E  3000               	movlw	0
  1047  069F  00F9               	movwf	wiz_reg_write@addr_lo+1
  1048  06A0  3000               	movlw	0
  1049  06A1  00FA               	movwf	wiz_reg_write@mosi
  1050  06A2  3000               	movlw	0
  1051  06A3  00FB               	movwf	wiz_reg_write@mosi+1
  1052  06A4  3185  2502  3186   	fcall	_wiz_reg_write
  1053                           
  1054                           ;pic16f145x_wiznet.c: 73: wiz_write(0x00, 0x05, conf.subnet, 0x04);
  1055  06A7  3000               	movlw	0
  1056  06A8  00F6               	movwf	wiz_write@addr_hi
  1057  06A9  3000               	movlw	0
  1058  06AA  00F7               	movwf	wiz_write@addr_hi+1
  1059  06AB  3005               	movlw	5
  1060  06AC  00F8               	movwf	wiz_write@addr_lo
  1061  06AD  3000               	movlw	0
  1062  06AE  00F9               	movwf	wiz_write@addr_lo+1
  1063  06AF  3036               	movlw	(wiz_init@conf+20)& (0+255)
  1064  06B0  0020               	movlb	0	; select bank0
  1065  06B1  00D2               	movwf	??_wiz_init
  1066  06B2  0852               	movf	??_wiz_init,w
  1067  06B3  00FA               	movwf	wiz_write@mosi
  1068  06B4  3004               	movlw	4
  1069  06B5  00FB               	movwf	wiz_write@length
  1070  06B6  3000               	movlw	0
  1071  06B7  00FC               	movwf	wiz_write@length+1
  1072  06B8  3185  2566  3186   	fcall	_wiz_write
  1073                           
  1074                           ;pic16f145x_wiznet.c: 76: wiz_write(0x00, 0x01, conf.gateway, 0x04);
  1075  06BB  3000               	movlw	0
  1076  06BC  00F6               	movwf	wiz_write@addr_hi
  1077  06BD  3000               	movlw	0
  1078  06BE  00F7               	movwf	wiz_write@addr_hi+1
  1079  06BF  3001               	movlw	1
  1080  06C0  00F8               	movwf	wiz_write@addr_lo
  1081  06C1  3000               	movlw	0
  1082  06C2  00F9               	movwf	wiz_write@addr_lo+1
  1083  06C3  3022               	movlw	wiz_init@conf& (0+255)
  1084  06C4  0020               	movlb	0	; select bank0
  1085  06C5  00D2               	movwf	??_wiz_init
  1086  06C6  0852               	movf	??_wiz_init,w
  1087  06C7  00FA               	movwf	wiz_write@mosi
  1088  06C8  3004               	movlw	4
  1089  06C9  00FB               	movwf	wiz_write@length
  1090  06CA  3000               	movlw	0
  1091  06CB  00FC               	movwf	wiz_write@length+1
  1092  06CC  3185  2566  3186   	fcall	_wiz_write
  1093                           
  1094                           ;pic16f145x_wiznet.c: 79: wiz_write(0x00, 0x0F, conf.ip, 0x04);
  1095  06CF  3000               	movlw	0
  1096  06D0  00F6               	movwf	wiz_write@addr_hi
  1097  06D1  3000               	movlw	0
  1098  06D2  00F7               	movwf	wiz_write@addr_hi+1
  1099  06D3  300F               	movlw	15
  1100  06D4  00F8               	movwf	wiz_write@addr_lo
  1101  06D5  3000               	movlw	0
  1102  06D6  00F9               	movwf	wiz_write@addr_lo+1
  1103  06D7  303E               	movlw	(wiz_init@conf+28)& (0+255)
  1104  06D8  0020               	movlb	0	; select bank0
  1105  06D9  00D2               	movwf	??_wiz_init
  1106  06DA  0852               	movf	??_wiz_init,w
  1107  06DB  00FA               	movwf	wiz_write@mosi
  1108  06DC  3004               	movlw	4
  1109  06DD  00FB               	movwf	wiz_write@length
  1110  06DE  3000               	movlw	0
  1111  06DF  00FC               	movwf	wiz_write@length+1
  1112  06E0  3185  2566  3186   	fcall	_wiz_write
  1113                           
  1114                           ;pic16f145x_wiznet.c: 82: wiz_write(0x00, 0x09, conf.mac, 0x06);
  1115  06E3  3000               	movlw	0
  1116  06E4  00F6               	movwf	wiz_write@addr_hi
  1117  06E5  3000               	movlw	0
  1118  06E6  00F7               	movwf	wiz_write@addr_hi+1
  1119  06E7  3009               	movlw	9
  1120  06E8  00F8               	movwf	wiz_write@addr_lo
  1121  06E9  3000               	movlw	0
  1122  06EA  00F9               	movwf	wiz_write@addr_lo+1
  1123  06EB  302A               	movlw	(wiz_init@conf+8)& (0+255)
  1124  06EC  0020               	movlb	0	; select bank0
  1125  06ED  00D2               	movwf	??_wiz_init
  1126  06EE  0852               	movf	??_wiz_init,w
  1127  06EF  00FA               	movwf	wiz_write@mosi
  1128  06F0  3006               	movlw	6
  1129  06F1  00FB               	movwf	wiz_write@length
  1130  06F2  3000               	movlw	0
  1131  06F3  00FC               	movwf	wiz_write@length+1
  1132  06F4  3185  2566  3186   	fcall	_wiz_write
  1133                           
  1134                           ;pic16f145x_wiznet.c: 87: wiz_reg_write(0x00, 0x35, 0x00);
  1135  06F7  3000               	movlw	0
  1136  06F8  00F6               	movwf	wiz_reg_write@addr_hi
  1137  06F9  3000               	movlw	0
  1138  06FA  00F7               	movwf	wiz_reg_write@addr_hi+1
  1139  06FB  3035               	movlw	53
  1140  06FC  00F8               	movwf	wiz_reg_write@addr_lo
  1141  06FD  3000               	movlw	0
  1142  06FE  00F9               	movwf	wiz_reg_write@addr_lo+1
  1143  06FF  3000               	movlw	0
  1144  0700  00FA               	movwf	wiz_reg_write@mosi
  1145  0701  3000               	movlw	0
  1146  0702  00FB               	movwf	wiz_reg_write@mosi+1
  1147  0703  3185  2502  3186   	fcall	_wiz_reg_write
  1148                           
  1149                           ;pic16f145x_wiznet.c: 88: wiz_reg_write(0x00, 0x36, 0x00);
  1150  0706  3000               	movlw	0
  1151  0707  00F6               	movwf	wiz_reg_write@addr_hi
  1152  0708  3000               	movlw	0
  1153  0709  00F7               	movwf	wiz_reg_write@addr_hi+1
  1154  070A  3036               	movlw	54
  1155  070B  00F8               	movwf	wiz_reg_write@addr_lo
  1156  070C  3000               	movlw	0
  1157  070D  00F9               	movwf	wiz_reg_write@addr_lo+1
  1158  070E  3000               	movlw	0
  1159  070F  00FA               	movwf	wiz_reg_write@mosi
  1160  0710  3000               	movlw	0
  1161  0711  00FB               	movwf	wiz_reg_write@mosi+1
  1162  0712  3185  2502  3186   	fcall	_wiz_reg_write
  1163                           
  1164                           ;pic16f145x_wiznet.c: 90: int i;
  1165                           ;pic16f145x_wiznet.c: 91: unsigned int sock;
  1166                           ;pic16f145x_wiznet.c: 93: for (i=0; i < 8; i++) {
  1167  0715  0020               	movlb	0	; select bank0
  1168  0716  01D3               	clrf	wiz_init@i
  1169  0717  01D4               	clrf	wiz_init@i+1
  1170  0718  0854               	movf	wiz_init@i+1,w
  1171  0719  3A80               	xorlw	128
  1172  071A  00D2               	movwf	??_wiz_init
  1173  071B  3080               	movlw	128
  1174  071C  0252               	subwf	??_wiz_init,w
  1175  071D  3008               	movlw	8
  1176  071E  1903               	btfsc	3,2
  1177  071F  0253               	subwf	wiz_init@i,w
  1178  0720  1803               	btfsc	3,0
  1179  0721  2F5B               	goto	l728
  1180  0722                     l718:	
  1181                           
  1182                           ;pic16f145x_wiznet.c: 94: sock = 0x40+i;
  1183  0722  0020               	movlb	0	; select bank0
  1184  0723  0853               	movf	wiz_init@i,w
  1185  0724  3E40               	addlw	64
  1186  0725  00D5               	movwf	wiz_init@sock
  1187  0726  3000               	movlw	0
  1188  0727  3D54               	addwfc	wiz_init@i+1,w
  1189  0728  00D6               	movwf	wiz_init@sock+1
  1190                           
  1191                           ;pic16f145x_wiznet.c: 95: wiz_reg_write(sock,0x01, 0x10);
  1192  0729  0856               	movf	wiz_init@sock+1,w
  1193  072A  01F7               	clrf	wiz_reg_write@addr_hi+1
  1194  072B  07F7               	addwf	wiz_reg_write@addr_hi+1,f
  1195  072C  0855               	movf	wiz_init@sock,w
  1196  072D  01F6               	clrf	wiz_reg_write@addr_hi
  1197  072E  07F6               	addwf	wiz_reg_write@addr_hi,f
  1198  072F  3001               	movlw	1
  1199  0730  00F8               	movwf	wiz_reg_write@addr_lo
  1200  0731  3000               	movlw	0
  1201  0732  00F9               	movwf	wiz_reg_write@addr_lo+1
  1202  0733  3010               	movlw	16
  1203  0734  00FA               	movwf	wiz_reg_write@mosi
  1204  0735  3000               	movlw	0
  1205  0736  00FB               	movwf	wiz_reg_write@mosi+1
  1206  0737  3185  2502  3186   	fcall	_wiz_reg_write
  1207                           
  1208                           ;pic16f145x_wiznet.c: 96: wiz_reg_write(sock,0x00, 0x00);
  1209  073A  0020               	movlb	0	; select bank0
  1210  073B  0856               	movf	wiz_init@sock+1,w
  1211  073C  01F7               	clrf	wiz_reg_write@addr_hi+1
  1212  073D  07F7               	addwf	wiz_reg_write@addr_hi+1,f
  1213  073E  0855               	movf	wiz_init@sock,w
  1214  073F  01F6               	clrf	wiz_reg_write@addr_hi
  1215  0740  07F6               	addwf	wiz_reg_write@addr_hi,f
  1216  0741  3000               	movlw	0
  1217  0742  00F8               	movwf	wiz_reg_write@addr_lo
  1218  0743  3000               	movlw	0
  1219  0744  00F9               	movwf	wiz_reg_write@addr_lo+1
  1220  0745  3000               	movlw	0
  1221  0746  00FA               	movwf	wiz_reg_write@mosi
  1222  0747  3000               	movlw	0
  1223  0748  00FB               	movwf	wiz_reg_write@mosi+1
  1224  0749  3185  2502  3186   	fcall	_wiz_reg_write
  1225  074C  3001               	movlw	1
  1226  074D  0020               	movlb	0	; select bank0
  1227  074E  07D3               	addwf	wiz_init@i,f
  1228  074F  3000               	movlw	0
  1229  0750  3DD4               	addwfc	wiz_init@i+1,f
  1230  0751  0854               	movf	wiz_init@i+1,w
  1231  0752  3A80               	xorlw	128
  1232  0753  00D2               	movwf	??_wiz_init
  1233  0754  3080               	movlw	128
  1234  0755  0252               	subwf	??_wiz_init,w
  1235  0756  3008               	movlw	8
  1236  0757  1903               	btfsc	3,2
  1237  0758  0253               	subwf	wiz_init@i,w
  1238  0759  1C03               	skipc
  1239  075A  2F22               	goto	l718
  1240  075B                     l728:	
  1241                           
  1242                           ;pic16f145x_wiznet.c: 97: }
  1243                           ;pic16f145x_wiznet.c: 100: for (i=0; i < 8; i++) {
  1244  075B  0020               	movlb	0	; select bank0
  1245  075C  01D3               	clrf	wiz_init@i
  1246  075D  01D4               	clrf	wiz_init@i+1
  1247  075E  0854               	movf	wiz_init@i+1,w
  1248  075F  3A80               	xorlw	128
  1249  0760  00D2               	movwf	??_wiz_init
  1250  0761  3080               	movlw	128
  1251  0762  0252               	subwf	??_wiz_init,w
  1252  0763  3008               	movlw	8
  1253  0764  1903               	btfsc	3,2
  1254  0765  0253               	subwf	wiz_init@i,w
  1255  0766  1803               	btfsc	3,0
  1256  0767  2FF3               	goto	l752
  1257  0768                     l734:	
  1258                           
  1259                           ;pic16f145x_wiznet.c: 101: sock = 0x40+i;
  1260  0768  0020               	movlb	0	; select bank0
  1261  0769  0853               	movf	wiz_init@i,w
  1262  076A  3E40               	addlw	64
  1263  076B  00D5               	movwf	wiz_init@sock
  1264  076C  3000               	movlw	0
  1265  076D  3D54               	addwfc	wiz_init@i+1,w
  1266  076E  00D6               	movwf	wiz_init@sock+1
  1267                           
  1268                           ;pic16f145x_wiznet.c: 102: wiz_reg_write(sock,0x00, 0x02);
  1269  076F  0856               	movf	wiz_init@sock+1,w
  1270  0770  01F7               	clrf	wiz_reg_write@addr_hi+1
  1271  0771  07F7               	addwf	wiz_reg_write@addr_hi+1,f
  1272  0772  0855               	movf	wiz_init@sock,w
  1273  0773  01F6               	clrf	wiz_reg_write@addr_hi
  1274  0774  07F6               	addwf	wiz_reg_write@addr_hi,f
  1275  0775  3000               	movlw	0
  1276  0776  00F8               	movwf	wiz_reg_write@addr_lo
  1277  0777  3000               	movlw	0
  1278  0778  00F9               	movwf	wiz_reg_write@addr_lo+1
  1279  0779  3002               	movlw	2
  1280  077A  00FA               	movwf	wiz_reg_write@mosi
  1281  077B  3000               	movlw	0
  1282  077C  00FB               	movwf	wiz_reg_write@mosi+1
  1283  077D  3185  2502  3186   	fcall	_wiz_reg_write
  1284                           
  1285                           ;pic16f145x_wiznet.c: 103: wiz_reg_write(sock,0x04, 0x13);
  1286  0780  0020               	movlb	0	; select bank0
  1287  0781  0856               	movf	wiz_init@sock+1,w
  1288  0782  01F7               	clrf	wiz_reg_write@addr_hi+1
  1289  0783  07F7               	addwf	wiz_reg_write@addr_hi+1,f
  1290  0784  0855               	movf	wiz_init@sock,w
  1291  0785  01F6               	clrf	wiz_reg_write@addr_hi
  1292  0786  07F6               	addwf	wiz_reg_write@addr_hi,f
  1293  0787  3004               	movlw	4
  1294  0788  00F8               	movwf	wiz_reg_write@addr_lo
  1295  0789  3000               	movlw	0
  1296  078A  00F9               	movwf	wiz_reg_write@addr_lo+1
  1297  078B  3013               	movlw	19
  1298  078C  00FA               	movwf	wiz_reg_write@mosi
  1299  078D  3000               	movlw	0
  1300  078E  00FB               	movwf	wiz_reg_write@mosi+1
  1301  078F  3185  2502  3186   	fcall	_wiz_reg_write
  1302                           
  1303                           ;pic16f145x_wiznet.c: 104: wiz_reg_write(sock,0x05, (0x81+i));
  1304  0792  0020               	movlb	0	; select bank0
  1305  0793  0856               	movf	wiz_init@sock+1,w
  1306  0794  01F7               	clrf	wiz_reg_write@addr_hi+1
  1307  0795  07F7               	addwf	wiz_reg_write@addr_hi+1,f
  1308  0796  0855               	movf	wiz_init@sock,w
  1309  0797  01F6               	clrf	wiz_reg_write@addr_hi
  1310  0798  07F6               	addwf	wiz_reg_write@addr_hi,f
  1311  0799  3005               	movlw	5
  1312  079A  00F8               	movwf	wiz_reg_write@addr_lo
  1313  079B  3000               	movlw	0
  1314  079C  00F9               	movwf	wiz_reg_write@addr_lo+1
  1315  079D  0853               	movf	wiz_init@i,w
  1316  079E  3E81               	addlw	129
  1317  079F  00FA               	movwf	wiz_reg_write@mosi
  1318  07A0  3000               	movlw	0
  1319  07A1  3D54               	addwfc	wiz_init@i+1,w
  1320  07A2  00FB               	movwf	wiz_reg_write@mosi+1
  1321  07A3  3185  2502  3186   	fcall	_wiz_reg_write
  1322                           
  1323                           ;pic16f145x_wiznet.c: 106: wiz_write(sock, 0x0C, conf.source_ip, 0x04);
  1324  07A6  0020               	movlb	0	; select bank0
  1325  07A7  0856               	movf	wiz_init@sock+1,w
  1326  07A8  01F7               	clrf	wiz_write@addr_hi+1
  1327  07A9  07F7               	addwf	wiz_write@addr_hi+1,f
  1328  07AA  0855               	movf	wiz_init@sock,w
  1329  07AB  01F6               	clrf	wiz_write@addr_hi
  1330  07AC  07F6               	addwf	wiz_write@addr_hi,f
  1331  07AD  300C               	movlw	12
  1332  07AE  00F8               	movwf	wiz_write@addr_lo
  1333  07AF  3000               	movlw	0
  1334  07B0  00F9               	movwf	wiz_write@addr_lo+1
  1335  07B1  3046               	movlw	(wiz_init@conf+36)& (0+255)
  1336  07B2  00D2               	movwf	??_wiz_init
  1337  07B3  0852               	movf	??_wiz_init,w
  1338  07B4  00FA               	movwf	wiz_write@mosi
  1339  07B5  3004               	movlw	4
  1340  07B6  00FB               	movwf	wiz_write@length
  1341  07B7  3000               	movlw	0
  1342  07B8  00FC               	movwf	wiz_write@length+1
  1343  07B9  3185  2566  3186   	fcall	_wiz_write
  1344                           
  1345                           ;pic16f145x_wiznet.c: 108: wiz_write(sock,0x10, conf.source_port, 0x02);
  1346  07BC  0020               	movlb	0	; select bank0
  1347  07BD  0856               	movf	wiz_init@sock+1,w
  1348  07BE  01F7               	clrf	wiz_write@addr_hi+1
  1349  07BF  07F7               	addwf	wiz_write@addr_hi+1,f
  1350  07C0  0855               	movf	wiz_init@sock,w
  1351  07C1  01F6               	clrf	wiz_write@addr_hi
  1352  07C2  07F6               	addwf	wiz_write@addr_hi,f
  1353  07C3  3010               	movlw	16
  1354  07C4  00F8               	movwf	wiz_write@addr_lo
  1355  07C5  3000               	movlw	0
  1356  07C6  00F9               	movwf	wiz_write@addr_lo+1
  1357  07C7  304E               	movlw	(wiz_init@conf+44)& (0+255)
  1358  07C8  00D2               	movwf	??_wiz_init
  1359  07C9  0852               	movf	??_wiz_init,w
  1360  07CA  00FA               	movwf	wiz_write@mosi
  1361  07CB  3002               	movlw	2
  1362  07CC  00FB               	movwf	wiz_write@length
  1363  07CD  3000               	movlw	0
  1364  07CE  00FC               	movwf	wiz_write@length+1
  1365  07CF  3185  2566  3186   	fcall	_wiz_write
  1366                           
  1367                           ;pic16f145x_wiznet.c: 110: wiz_reg_write(sock,0x01, 0x01);
  1368  07D2  0020               	movlb	0	; select bank0
  1369  07D3  0856               	movf	wiz_init@sock+1,w
  1370  07D4  01F7               	clrf	wiz_reg_write@addr_hi+1
  1371  07D5  07F7               	addwf	wiz_reg_write@addr_hi+1,f
  1372  07D6  0855               	movf	wiz_init@sock,w
  1373  07D7  01F6               	clrf	wiz_reg_write@addr_hi
  1374  07D8  07F6               	addwf	wiz_reg_write@addr_hi,f
  1375  07D9  3001               	movlw	1
  1376  07DA  00F8               	movwf	wiz_reg_write@addr_lo
  1377  07DB  3000               	movlw	0
  1378  07DC  00F9               	movwf	wiz_reg_write@addr_lo+1
  1379  07DD  3001               	movlw	1
  1380  07DE  00FA               	movwf	wiz_reg_write@mosi
  1381  07DF  3000               	movlw	0
  1382  07E0  00FB               	movwf	wiz_reg_write@mosi+1
  1383  07E1  3185  2502  3186   	fcall	_wiz_reg_write
  1384  07E4  3001               	movlw	1
  1385  07E5  0020               	movlb	0	; select bank0
  1386  07E6  07D3               	addwf	wiz_init@i,f
  1387  07E7  3000               	movlw	0
  1388  07E8  3DD4               	addwfc	wiz_init@i+1,f
  1389  07E9  0854               	movf	wiz_init@i+1,w
  1390  07EA  3A80               	xorlw	128
  1391  07EB  00D2               	movwf	??_wiz_init
  1392  07EC  3080               	movlw	128
  1393  07ED  0252               	subwf	??_wiz_init,w
  1394  07EE  3008               	movlw	8
  1395  07EF  1903               	btfsc	3,2
  1396  07F0  0253               	subwf	wiz_init@i,w
  1397  07F1  1C03               	skipc
  1398  07F2  2F68               	goto	l734
  1399  07F3                     l752:	
  1400                           
  1401                           ;pic16f145x_wiznet.c: 111: }
  1402                           ;pic16f145x_wiznet.c: 114: _delay((unsigned long)((100)*(48000000/4000000.0)));
  1403  07F3  30EF               	movlw	239
  1404  07F4  0020               	movlb	0	; select bank0
  1405  07F5  00D2               	movwf	??_wiz_init
  1406  07F6                     u267:	
  1407  07F6  3200               	nop2
  1408  07F7  0BD2               	decfsz	??_wiz_init,f
  1409  07F8  2FF6               	goto	u267
  1410  07F9  3200               	nop2	;nop
  1411  07FA  3200               	nop2	;nop
  1412  07FB  0008               	return
  1413  07FC                     __end_of_wiz_init:	
  1414                           
  1415                           	psect	text3
  1416  0566                     __ptext3:	
  1417 ;; *************** function _wiz_write *****************
  1418 ;; Defined at:
  1419 ;;		line 41 in file "pic16f145x_wiznet.c"
  1420 ;; Parameters:    Size  Location     Type
  1421 ;;  addr_hi         2    6[COMMON] unsigned int 
  1422 ;;  addr_lo         2    8[COMMON] unsigned int 
  1423 ;;  mosi            1   10[COMMON] PTR unsigned int 
  1424 ;;		 -> wiz_init@conf(48), 
  1425 ;;  length          2   11[COMMON] unsigned int 
  1426 ;; Auto vars:     Size  Location     Type
  1427 ;;  i               2    0[BANK0 ] int 
  1428 ;; Return value:  Size  Location     Type
  1429 ;;		None               void
  1430 ;; Registers used:
  1431 ;;		wreg, fsr1l, fsr1h, status,2, status,0, pclath, cstack
  1432 ;; Tracked objects:
  1433 ;;		On entry : 0/0
  1434 ;;		On exit  : 0/0
  1435 ;;		Unchanged: 0/0
  1436 ;; Data sizes:     COMMON   BANK0   BANK1   BANK2   BANK3   BANK4   BANK5   BANK6   BANK7   BANK8   BANK9  BANK10  BANK1
      +1  BANK12
  1437 ;;      Params:         7       0       0       0       0       0       0       0       0       0       0       0       
      +0       0
  1438 ;;      Locals:         0       2       0       0       0       0       0       0       0       0       0       0       
      +0       0
  1439 ;;      Temps:          1       0       0       0       0       0       0       0       0       0       0       0       
      +0       0
  1440 ;;      Totals:         8       2       0       0       0       0       0       0       0       0       0       0       
      +0       0
  1441 ;;Total ram usage:       10 bytes
  1442 ;; Hardware stack levels used:    1
  1443 ;; Hardware stack levels required when called:    1
  1444 ;; This function calls:
  1445 ;;		_spi
  1446 ;; This function is called by:
  1447 ;;		_wiz_init
  1448 ;; This function uses a non-reentrant model
  1449 ;;
  1450                           
  1451                           
  1452                           ;psect for function _wiz_write
  1453  0566                     _wiz_write:	
  1454                           
  1455                           ;pic16f145x_wiznet.c: 43: LATCbits.LATC3 = 0;
  1456                           
  1457                           ;incstack = 0
  1458                           ; Regs used in _wiz_write: [wreg+fsr1l+fsr1h+status,2+status,0+pclath+cstack]
  1459  0566  0022               	movlb	2	; select bank2
  1460  0567  118E               	bcf	14,3	;volatile
  1461                           
  1462                           ;pic16f145x_wiznet.c: 46: spi(addr_hi);
  1463  0568  0877               	movf	wiz_write@addr_hi+1,w
  1464  0569  01F1               	clrf	spi@mosi+1
  1465  056A  07F1               	addwf	spi@mosi+1,f
  1466  056B  0876               	movf	wiz_write@addr_hi,w
  1467  056C  01F0               	clrf	spi@mosi
  1468  056D  07F0               	addwf	spi@mosi,f
  1469  056E  3184  24BD  3185   	fcall	_spi
  1470                           
  1471                           ;pic16f145x_wiznet.c: 47: spi(addr_lo);
  1472  0571  0879               	movf	wiz_write@addr_lo+1,w
  1473  0572  01F1               	clrf	spi@mosi+1
  1474  0573  07F1               	addwf	spi@mosi+1,f
  1475  0574  0878               	movf	wiz_write@addr_lo,w
  1476  0575  01F0               	clrf	spi@mosi
  1477  0576  07F0               	addwf	spi@mosi,f
  1478  0577  3184  24BD  3185   	fcall	_spi
  1479                           
  1480                           ;pic16f145x_wiznet.c: 50: spi(0x80);
  1481  057A  3080               	movlw	128
  1482  057B  00F0               	movwf	spi@mosi
  1483  057C  3000               	movlw	0
  1484  057D  00F1               	movwf	spi@mosi+1
  1485  057E  3184  24BD  3185   	fcall	_spi
  1486                           
  1487                           ;pic16f145x_wiznet.c: 51: spi(length);
  1488  0581  087C               	movf	wiz_write@length+1,w
  1489  0582  01F1               	clrf	spi@mosi+1
  1490  0583  07F1               	addwf	spi@mosi+1,f
  1491  0584  087B               	movf	wiz_write@length,w
  1492  0585  01F0               	clrf	spi@mosi
  1493  0586  07F0               	addwf	spi@mosi,f
  1494  0587  3184  24BD  3185   	fcall	_spi
  1495                           
  1496                           ;pic16f145x_wiznet.c: 53: for(int i=0;i<length;i++)
  1497  058A  0020               	movlb	0	; select bank0
  1498  058B  01A0               	clrf	wiz_write@i
  1499  058C  01A1               	clrf	wiz_write@i+1
  1500  058D                     l682:	
  1501  058D  087C               	movf	wiz_write@length+1,w
  1502  058E  0221               	subwf	wiz_write@i+1,w
  1503  058F  1D03               	skipz
  1504  0590  2D93               	goto	u135
  1505  0591  087B               	movf	wiz_write@length,w
  1506  0592  0220               	subwf	wiz_write@i,w
  1507  0593                     u135:	
  1508  0593  1803               	btfsc	3,0
  1509  0594  2DA8               	goto	l64
  1510                           
  1511                           ;pic16f145x_wiznet.c: 54: spi(mosi[i]);
  1512  0595  3520               	lslf	wiz_write@i,w
  1513  0596  077A               	addwf	wiz_write@mosi,w
  1514  0597  00FD               	movwf	??_wiz_write
  1515  0598  087D               	movf	??_wiz_write,w
  1516  0599  0086               	movwf	6
  1517  059A  0187               	clrf	7
  1518  059B  3F40               	moviw [0]fsr1
  1519  059C  00F0               	movwf	spi@mosi
  1520  059D  3F41               	moviw [1]fsr1
  1521  059E  00F1               	movwf	spi@mosi+1
  1522  059F  3184  24BD  3185   	fcall	_spi
  1523  05A2  3001               	movlw	1
  1524  05A3  0020               	movlb	0	; select bank0
  1525  05A4  07A0               	addwf	wiz_write@i,f
  1526  05A5  3000               	movlw	0
  1527  05A6  3DA1               	addwfc	wiz_write@i+1,f
  1528  05A7  2D8D               	goto	l682
  1529  05A8                     l64:	
  1530                           
  1531                           ;pic16f145x_wiznet.c: 56: LATCbits.LATC3 = 1;
  1532  05A8  0022               	movlb	2	; select bank2
  1533  05A9  158E               	bsf	14,3	;volatile
  1534  05AA  0008               	return
  1535  05AB                     __end_of_wiz_write:	
  1536                           
  1537                           	psect	text4
  1538  0502                     __ptext4:	
  1539 ;; *************** function _wiz_reg_write *****************
  1540 ;; Defined at:
  1541 ;;		line 21 in file "pic16f145x_wiznet.c"
  1542 ;; Parameters:    Size  Location     Type
  1543 ;;  addr_hi         2    6[COMMON] unsigned int 
  1544 ;;  addr_lo         2    8[COMMON] unsigned int 
  1545 ;;  mosi            2   10[COMMON] unsigned int 
  1546 ;; Auto vars:     Size  Location     Type
  1547 ;;		None
  1548 ;; Return value:  Size  Location     Type
  1549 ;;		None               void
  1550 ;; Registers used:
  1551 ;;		wreg, status,2, status,0, pclath, cstack
  1552 ;; Tracked objects:
  1553 ;;		On entry : 0/0
  1554 ;;		On exit  : 0/0
  1555 ;;		Unchanged: 0/0
  1556 ;; Data sizes:     COMMON   BANK0   BANK1   BANK2   BANK3   BANK4   BANK5   BANK6   BANK7   BANK8   BANK9  BANK10  BANK1
      +1  BANK12
  1557 ;;      Params:         6       0       0       0       0       0       0       0       0       0       0       0       
      +0       0
  1558 ;;      Locals:         0       0       0       0       0       0       0       0       0       0       0       0       
      +0       0
  1559 ;;      Temps:          0       0       0       0       0       0       0       0       0       0       0       0       
      +0       0
  1560 ;;      Totals:         6       0       0       0       0       0       0       0       0       0       0       0       
      +0       0
  1561 ;;Total ram usage:        6 bytes
  1562 ;; Hardware stack levels used:    1
  1563 ;; Hardware stack levels required when called:    1
  1564 ;; This function calls:
  1565 ;;		_spi
  1566 ;; This function is called by:
  1567 ;;		_wiz_init
  1568 ;; This function uses a non-reentrant model
  1569 ;;
  1570                           
  1571                           
  1572                           ;psect for function _wiz_reg_write
  1573  0502                     _wiz_reg_write:	
  1574                           
  1575                           ;pic16f145x_wiznet.c: 23: LATCbits.LATC3 = 0;
  1576                           
  1577                           ;incstack = 0
  1578                           ; Regs used in _wiz_reg_write: [wreg+status,2+status,0+pclath+cstack]
  1579  0502  0022               	movlb	2	; select bank2
  1580  0503  118E               	bcf	14,3	;volatile
  1581                           
  1582                           ;pic16f145x_wiznet.c: 25: spi(addr_hi);
  1583  0504  0877               	movf	wiz_reg_write@addr_hi+1,w
  1584  0505  01F1               	clrf	spi@mosi+1
  1585  0506  07F1               	addwf	spi@mosi+1,f
  1586  0507  0876               	movf	wiz_reg_write@addr_hi,w
  1587  0508  01F0               	clrf	spi@mosi
  1588  0509  07F0               	addwf	spi@mosi,f
  1589  050A  3184  24BD  3185   	fcall	_spi
  1590                           
  1591                           ;pic16f145x_wiznet.c: 26: spi(addr_lo);
  1592  050D  0879               	movf	wiz_reg_write@addr_lo+1,w
  1593  050E  01F1               	clrf	spi@mosi+1
  1594  050F  07F1               	addwf	spi@mosi+1,f
  1595  0510  0878               	movf	wiz_reg_write@addr_lo,w
  1596  0511  01F0               	clrf	spi@mosi
  1597  0512  07F0               	addwf	spi@mosi,f
  1598  0513  3184  24BD  3185   	fcall	_spi
  1599                           
  1600                           ;pic16f145x_wiznet.c: 29: spi(0x80);
  1601  0516  3080               	movlw	128
  1602  0517  00F0               	movwf	spi@mosi
  1603  0518  3000               	movlw	0
  1604  0519  00F1               	movwf	spi@mosi+1
  1605  051A  3184  24BD  3185   	fcall	_spi
  1606                           
  1607                           ;pic16f145x_wiznet.c: 30: spi(0x01);
  1608  051D  3001               	movlw	1
  1609  051E  00F0               	movwf	spi@mosi
  1610  051F  3000               	movlw	0
  1611  0520  00F1               	movwf	spi@mosi+1
  1612  0521  3184  24BD  3185   	fcall	_spi
  1613                           
  1614                           ;pic16f145x_wiznet.c: 32: spi(mosi);
  1615  0524  087B               	movf	wiz_reg_write@mosi+1,w
  1616  0525  01F1               	clrf	spi@mosi+1
  1617  0526  07F1               	addwf	spi@mosi+1,f
  1618  0527  087A               	movf	wiz_reg_write@mosi,w
  1619  0528  01F0               	clrf	spi@mosi
  1620  0529  07F0               	addwf	spi@mosi,f
  1621  052A  3184  24BD         	fcall	_spi
  1622                           
  1623                           ;pic16f145x_wiznet.c: 33: LATCbits.LATC3 = 1;
  1624  052C  0022               	movlb	2	; select bank2
  1625  052D  158E               	bsf	14,3	;volatile
  1626  052E  0008               	return
  1627  052F                     __end_of_wiz_reg_write:	
  1628                           
  1629                           	psect	text5
  1630  052F                     __ptext5:	
  1631 ;; *************** function _wiz_reg_read *****************
  1632 ;; Defined at:
  1633 ;;		line 4 in file "pic16f145x_wiznet.c"
  1634 ;; Parameters:    Size  Location     Type
  1635 ;;  addr_hi         2    6[COMMON] unsigned int 
  1636 ;;  addr_lo         2    8[COMMON] unsigned int 
  1637 ;; Auto vars:     Size  Location     Type
  1638 ;;  miso            2   10[COMMON] unsigned int 
  1639 ;; Return value:  Size  Location     Type
  1640 ;;                  2    6[COMMON] unsigned int 
  1641 ;; Registers used:
  1642 ;;		wreg, status,2, status,0, pclath, cstack
  1643 ;; Tracked objects:
  1644 ;;		On entry : 0/0
  1645 ;;		On exit  : 0/0
  1646 ;;		Unchanged: 0/0
  1647 ;; Data sizes:     COMMON   BANK0   BANK1   BANK2   BANK3   BANK4   BANK5   BANK6   BANK7   BANK8   BANK9  BANK10  BANK1
      +1  BANK12
  1648 ;;      Params:         4       0       0       0       0       0       0       0       0       0       0       0       
      +0       0
  1649 ;;      Locals:         2       0       0       0       0       0       0       0       0       0       0       0       
      +0       0
  1650 ;;      Temps:          0       0       0       0       0       0       0       0       0       0       0       0       
      +0       0
  1651 ;;      Totals:         6       0       0       0       0       0       0       0       0       0       0       0       
      +0       0
  1652 ;;Total ram usage:        6 bytes
  1653 ;; Hardware stack levels used:    1
  1654 ;; Hardware stack levels required when called:    1
  1655 ;; This function calls:
  1656 ;;		_spi
  1657 ;; This function is called by:
  1658 ;;		_wiz_init
  1659 ;; This function uses a non-reentrant model
  1660 ;;
  1661                           
  1662                           
  1663                           ;psect for function _wiz_reg_read
  1664  052F                     _wiz_reg_read:	
  1665                           
  1666                           ;pic16f145x_wiznet.c: 6: LATCbits.LATC3 = 0;
  1667                           
  1668                           ;incstack = 0
  1669                           ; Regs used in _wiz_reg_read: [wreg+status,2+status,0+pclath+cstack]
  1670  052F  0022               	movlb	2	; select bank2
  1671  0530  118E               	bcf	14,3	;volatile
  1672                           
  1673                           ;pic16f145x_wiznet.c: 8: spi(addr_hi);
  1674  0531  0877               	movf	wiz_reg_read@addr_hi+1,w
  1675  0532  01F1               	clrf	spi@mosi+1
  1676  0533  07F1               	addwf	spi@mosi+1,f
  1677  0534  0876               	movf	wiz_reg_read@addr_hi,w
  1678  0535  01F0               	clrf	spi@mosi
  1679  0536  07F0               	addwf	spi@mosi,f
  1680  0537  3184  24BD  3185   	fcall	_spi
  1681                           
  1682                           ;pic16f145x_wiznet.c: 9: spi(addr_lo);
  1683  053A  0879               	movf	wiz_reg_read@addr_lo+1,w
  1684  053B  01F1               	clrf	spi@mosi+1
  1685  053C  07F1               	addwf	spi@mosi+1,f
  1686  053D  0878               	movf	wiz_reg_read@addr_lo,w
  1687  053E  01F0               	clrf	spi@mosi
  1688  053F  07F0               	addwf	spi@mosi,f
  1689  0540  3184  24BD  3185   	fcall	_spi
  1690                           
  1691                           ;pic16f145x_wiznet.c: 12: spi(0x00);
  1692  0543  3000               	movlw	0
  1693  0544  00F0               	movwf	spi@mosi
  1694  0545  3000               	movlw	0
  1695  0546  00F1               	movwf	spi@mosi+1
  1696  0547  3184  24BD  3185   	fcall	_spi
  1697                           
  1698                           ;pic16f145x_wiznet.c: 13: spi(0x01);
  1699  054A  3001               	movlw	1
  1700  054B  00F0               	movwf	spi@mosi
  1701  054C  3000               	movlw	0
  1702  054D  00F1               	movwf	spi@mosi+1
  1703  054E  3184  24BD  3185   	fcall	_spi
  1704                           
  1705                           ;pic16f145x_wiznet.c: 15: unsigned int miso = spi(0x00);
  1706  0551  3000               	movlw	0
  1707  0552  00F0               	movwf	spi@mosi
  1708  0553  3000               	movlw	0
  1709  0554  00F1               	movwf	spi@mosi+1
  1710  0555  3184  24BD         	fcall	_spi
  1711  0557  0871               	movf	?_spi+1,w
  1712  0558  01FB               	clrf	wiz_reg_read@miso+1
  1713  0559  07FB               	addwf	wiz_reg_read@miso+1,f
  1714  055A  0870               	movf	?_spi,w
  1715  055B  01FA               	clrf	wiz_reg_read@miso
  1716  055C  07FA               	addwf	wiz_reg_read@miso,f
  1717                           
  1718                           ;pic16f145x_wiznet.c: 16: LATCbits.LATC3 = 1;
  1719  055D  0022               	movlb	2	; select bank2
  1720  055E  158E               	bsf	14,3	;volatile
  1721                           
  1722                           ;pic16f145x_wiznet.c: 18: return (miso);
  1723  055F  087B               	movf	wiz_reg_read@miso+1,w
  1724  0560  01F7               	clrf	?_wiz_reg_read+1
  1725  0561  07F7               	addwf	?_wiz_reg_read+1,f
  1726  0562  087A               	movf	wiz_reg_read@miso,w
  1727  0563  01F6               	clrf	?_wiz_reg_read
  1728  0564  07F6               	addwf	?_wiz_reg_read,f
  1729  0565  0008               	return
  1730  0566                     __end_of_wiz_reg_read:	
  1731                           
  1732                           	psect	text6
  1733  04BD                     __ptext6:	
  1734 ;; *************** function _spi *****************
  1735 ;; Defined at:
  1736 ;;		line 7 in file "pic16f145x_spi.c"
  1737 ;; Parameters:    Size  Location     Type
  1738 ;;  mosi            2    0[COMMON] unsigned int 
  1739 ;; Auto vars:     Size  Location     Type
  1740 ;;  miso            2    4[COMMON] unsigned int 
  1741 ;; Return value:  Size  Location     Type
  1742 ;;                  2    0[COMMON] unsigned int 
  1743 ;; Registers used:
  1744 ;;		wreg, status,2, status,0
  1745 ;; Tracked objects:
  1746 ;;		On entry : 0/0
  1747 ;;		On exit  : 0/0
  1748 ;;		Unchanged: 0/0
  1749 ;; Data sizes:     COMMON   BANK0   BANK1   BANK2   BANK3   BANK4   BANK5   BANK6   BANK7   BANK8   BANK9  BANK10  BANK1
      +1  BANK12
  1750 ;;      Params:         2       0       0       0       0       0       0       0       0       0       0       0       
      +0       0
  1751 ;;      Locals:         2       0       0       0       0       0       0       0       0       0       0       0       
      +0       0
  1752 ;;      Temps:          2       0       0       0       0       0       0       0       0       0       0       0       
      +0       0
  1753 ;;      Totals:         6       0       0       0       0       0       0       0       0       0       0       0       
      +0       0
  1754 ;;Total ram usage:        6 bytes
  1755 ;; Hardware stack levels used:    1
  1756 ;; This function calls:
  1757 ;;		Nothing
  1758 ;; This function is called by:
  1759 ;;		_main
  1760 ;;		_wiz_reg_read
  1761 ;;		_wiz_reg_write
  1762 ;;		_wiz_write
  1763 ;; This function uses a non-reentrant model
  1764 ;;
  1765                           
  1766                           
  1767                           ;psect for function _spi
  1768  04BD                     _spi:	
  1769                           
  1770                           ;pic16f145x_spi.c: 9: unsigned int miso;
  1771                           ;pic16f145x_spi.c: 11: PIR1bits.SSP1IF=0;
  1772                           
  1773                           ;incstack = 0
  1774                           ; Regs used in _spi: [wreg+status,2+status,0]
  1775  04BD  0020               	movlb	0	; select bank0
  1776  04BE  1191               	bcf	17,3	;volatile
  1777                           
  1778                           ;pic16f145x_spi.c: 12: SSPBUF = mosi;
  1779  04BF  0870               	movf	spi@mosi,w
  1780  04C0  0024               	movlb	4	; select bank4
  1781  04C1  0091               	movwf	17	;volatile
  1782  04C2                     l38:	
  1783                           ;pic16f145x_spi.c: 13: while(!SSPSTATbits.BF);
  1784                           
  1785  04C2  1C14               	btfss	20,0	;volatile
  1786  04C3  2CC2               	goto	l38
  1787                           
  1788                           ;pic16f145x_spi.c: 14: miso = SSPBUF;
  1789  04C4  0811               	movf	17,w	;volatile
  1790  04C5  00F2               	movwf	??_spi
  1791  04C6  01F3               	clrf	??_spi+1
  1792  04C7  0872               	movf	??_spi,w
  1793  04C8  00F4               	movwf	spi@miso
  1794  04C9  0873               	movf	??_spi+1,w
  1795  04CA  00F5               	movwf	spi@miso+1
  1796                           
  1797                           ;pic16f145x_spi.c: 15: return (miso);
  1798  04CB  0875               	movf	spi@miso+1,w
  1799  04CC  01F1               	clrf	?_spi+1
  1800  04CD  07F1               	addwf	?_spi+1,f
  1801  04CE  0874               	movf	spi@miso,w
  1802  04CF  01F0               	clrf	?_spi
  1803  04D0  07F0               	addwf	?_spi,f
  1804  04D1  0008               	return
  1805  04D2                     __end_of_spi:	
  1806                           
  1807                           	psect	text7
  1808  04E7                     __ptext7:	
  1809 ;; *************** function _spi_setup *****************
  1810 ;; Defined at:
  1811 ;;		line 19 in file "pic16f145x_spi.c"
  1812 ;; Parameters:    Size  Location     Type
  1813 ;;  conf           10    0[COMMON] struct spi_conf_t
  1814 ;; Auto vars:     Size  Location     Type
  1815 ;;		None
  1816 ;; Return value:  Size  Location     Type
  1817 ;;		None               void
  1818 ;; Registers used:
  1819 ;;		wreg, status,2, status,0
  1820 ;; Tracked objects:
  1821 ;;		On entry : 0/0
  1822 ;;		On exit  : 0/0
  1823 ;;		Unchanged: 0/0
  1824 ;; Data sizes:     COMMON   BANK0   BANK1   BANK2   BANK3   BANK4   BANK5   BANK6   BANK7   BANK8   BANK9  BANK10  BANK1
      +1  BANK12
  1825 ;;      Params:        10       0       0       0       0       0       0       0       0       0       0       0       
      +0       0
  1826 ;;      Locals:         0       0       0       0       0       0       0       0       0       0       0       0       
      +0       0
  1827 ;;      Temps:          0       0       0       0       0       0       0       0       0       0       0       0       
      +0       0
  1828 ;;      Totals:        10       0       0       0       0       0       0       0       0       0       0       0       
      +0       0
  1829 ;;Total ram usage:       10 bytes
  1830 ;; Hardware stack levels used:    1
  1831 ;; This function calls:
  1832 ;;		Nothing
  1833 ;; This function is called by:
  1834 ;;		_config
  1835 ;; This function uses a non-reentrant model
  1836 ;;
  1837                           
  1838                           
  1839                           ;psect for function _spi_setup
  1840  04E7                     _spi_setup:	
  1841                           
  1842                           ;pic16f145x_spi.c: 30: SSPCONbits.SSPM = conf.SSPM_bits;
  1843                           
  1844                           ;incstack = 0
  1845                           ; Regs used in _spi_setup: [wreg+status,2+status,0]
  1846  04E7  0024               	movlb	4	; select bank4
  1847  04E8  0815               	movf	21,w	;volatile
  1848  04E9  0670               	xorwf	spi_setup@conf,w
  1849  04EA  39F0               	andlw	-16
  1850  04EB  0670               	xorwf	spi_setup@conf,w
  1851  04EC  0095               	movwf	21	;volatile
  1852                           
  1853                           ;pic16f145x_spi.c: 31: SSPCONbits.CKP = conf.CKP_bits;
  1854  04ED  0872               	movf	spi_setup@conf+2,w
  1855  04EE  1D03               	skipz
  1856  04EF  1615               	bsf	21,4	;volatile
  1857  04F0  1903               	skipnz
  1858  04F1  1215               	bcf	21,4	;volatile
  1859                           
  1860                           ;pic16f145x_spi.c: 32: SSPSTATbits.CKE = conf.CKE_bits;
  1861  04F2  0874               	movf	spi_setup@conf+4,w
  1862  04F3  1D03               	skipz
  1863  04F4  1714               	bsf	20,6	;volatile
  1864  04F5  1903               	skipnz
  1865  04F6  1314               	bcf	20,6	;volatile
  1866                           
  1867                           ;pic16f145x_spi.c: 33: SSPSTATbits.SMP = conf.SMP_bits;
  1868  04F7  0876               	movf	spi_setup@conf+6,w
  1869  04F8  1D03               	skipz
  1870  04F9  1794               	bsf	20,7	;volatile
  1871  04FA  1903               	skipnz
  1872  04FB  1394               	bcf	20,7	;volatile
  1873                           
  1874                           ;pic16f145x_spi.c: 34: SSPCONbits.SSPEN = conf.SSPEN_bits;
  1875  04FC  0878               	movf	spi_setup@conf+8,w
  1876  04FD  1D03               	skipz
  1877  04FE  1695               	bsf	21,5	;volatile
  1878  04FF  1903               	skipnz
  1879  0500  1295               	bcf	21,5	;volatile
  1880  0501  0008               	return
  1881  0502                     __end_of_spi_setup:	
  1882  007E                     btemp	set	126	;btemp
  1883  007E                     pic14e$flags	set	126
  1884  007E                     wtemp	set	126
  1885  007E                     wtemp0	set	126
  1886  0080                     wtemp1	set	128
  1887  0082                     wtemp2	set	130
  1888  0084                     wtemp3	set	132
  1889  0086                     wtemp4	set	134
  1890  0088                     wtemp5	set	136
  1891  007F                     wtemp6	set	127
  1892  007E                     ttemp	set	126
  1893  007E                     ttemp0	set	126
  1894  0081                     ttemp1	set	129
  1895  0084                     ttemp2	set	132
  1896  0087                     ttemp3	set	135
  1897  007F                     ttemp4	set	127
  1898  007E                     ltemp	set	126
  1899  007E                     ltemp0	set	126
  1900  0082                     ltemp1	set	130
  1901  0086                     ltemp2	set	134
  1902  0080                     ltemp3	set	128


Data Sizes:
    Strings     0
    Constant    0
    Data        0
    BSS         0
    Persistent  0
    Stack       0

Auto Spaces:
    Space          Size  Autos    Used
    COMMON           14     14      14
    BANK0            80     61      61
    BANK1            80     60      60
    BANK2            80      0       0
    BANK3            80      0       0
    BANK4            80      0       0
    BANK5            80      0       0
    BANK6            80      0       0
    BANK7            80      0       0
    BANK8            80      0       0
    BANK9            80      0       0
    BANK10           80      0       0
    BANK11           80      0       0
    BANK12           48      0       0

Pointer List with Targets:

    wiz_write@mosi	PTR unsigned int  size(1) Largest target is 48
		 -> wiz_init@conf(BANK0[48]), 


Critical Paths under _main in COMMON

    _wiz_init->_wiz_write
    _wiz_write->_spi
    _wiz_reg_write->_spi
    _wiz_reg_read->_spi

Critical Paths under _main in BANK0

    _main->_config
    _config->_wiz_init
    _wiz_init->_wiz_write

Critical Paths under _main in BANK1

    _main->_config

Critical Paths under _main in BANK2

    None.

Critical Paths under _main in BANK3

    None.

Critical Paths under _main in BANK4

    None.

Critical Paths under _main in BANK5

    None.

Critical Paths under _main in BANK6

    None.

Critical Paths under _main in BANK7

    None.

Critical Paths under _main in BANK8

    None.

Critical Paths under _main in BANK9

    None.

Critical Paths under _main in BANK10

    None.

Critical Paths under _main in BANK11

    None.

Critical Paths under _main in BANK12

    None.

Call Graph Tables:

 ---------------------------------------------------------------------------------
 (Depth) Function   	        Calls       Base Space   Used Autos Params    Refs
 ---------------------------------------------------------------------------------
 (0) _main                                                 5     1      4    9765
                                             56 BANK0      5     1      4
                             _config
                                _spi
 ---------------------------------------------------------------------------------
 (1) _config                                              61    61      0    8696
                                             55 BANK0      1     1      0
                                              0 BANK1     60    60      0
                          _spi_setup
                           _wiz_init
 ---------------------------------------------------------------------------------
 (2) _wiz_init                                            53     5     48    7805
                                              2 BANK0     53     5     48
                       _wiz_reg_read
                      _wiz_reg_write
                          _wiz_write
 ---------------------------------------------------------------------------------
 (3) _wiz_write                                           10     3      7    2761
                                              6 COMMON     8     1      7
                                              0 BANK0      2     2      0
                                _spi
 ---------------------------------------------------------------------------------
 (3) _wiz_reg_write                                        6     0      6    3247
                                              6 COMMON     6     0      6
                                _spi
 ---------------------------------------------------------------------------------
 (3) _wiz_reg_read                                         6     2      4    1264
                                              6 COMMON     6     2      4
                                _spi
 ---------------------------------------------------------------------------------
 (1) _spi                                                  6     4      2    1069
                                              0 COMMON     6     4      2
 ---------------------------------------------------------------------------------
 (2) _spi_setup                                           10     0     10     178
                                              0 COMMON    10     0     10
 ---------------------------------------------------------------------------------
 Estimated maximum stack depth 3
 ---------------------------------------------------------------------------------

 Call Graph Graphs:

 _main (ROOT)
   _config
     _spi_setup
     _wiz_init
       _wiz_reg_read
         _spi
       _wiz_reg_write
         _spi
       _wiz_write
         _spi
   _spi

 Address spaces:
Name               Size   Autos  Total    Cost      Usage
BIGRAM             3F0      0       0       0        0.0%
NULL                 0      0       0       0        0.0%
CODE                 0      0       0       0        0.0%
BITCOMMON            E      0       0       1        0.0%
BITSFR0              0      0       0       1        0.0%
SFR0                 0      0       0       1        0.0%
COMMON               E      E       E       2      100.0%
BITSFR1              0      0       0       2        0.0%
SFR1                 0      0       0       2        0.0%
BITSFR2              0      0       0       3        0.0%
SFR2                 0      0       0       3        0.0%
STACK                0      0       0       3        0.0%
BITBANK0            50      0       0       4        0.0%
BITSFR3              0      0       0       4        0.0%
SFR3                 0      0       0       4        0.0%
BANK0               50     3D      3D       5       76.2%
BITSFR4              0      0       0       5        0.0%
SFR4                 0      0       0       5        0.0%
BITBANK1            50      0       0       6        0.0%
BITSFR5              0      0       0       6        0.0%
SFR5                 0      0       0       6        0.0%
BANK1               50     3C      3C       7       75.0%
BITSFR6              0      0       0       7        0.0%
SFR6                 0      0       0       7        0.0%
BITBANK2            50      0       0       8        0.0%
BITSFR7              0      0       0       8        0.0%
SFR7                 0      0       0       8        0.0%
BANK2               50      0       0       9        0.0%
BITSFR8              0      0       0       9        0.0%
SFR8                 0      0       0       9        0.0%
BITBANK3            50      0       0      10        0.0%
BITSFR9              0      0       0      10        0.0%
SFR9                 0      0       0      10        0.0%
BANK3               50      0       0      11        0.0%
BITSFR10             0      0       0      11        0.0%
SFR10                0      0       0      11        0.0%
BITBANK4            50      0       0      12        0.0%
BITSFR11             0      0       0      12        0.0%
SFR11                0      0       0      12        0.0%
BANK4               50      0       0      13        0.0%
BITSFR12             0      0       0      13        0.0%
SFR12                0      0       0      13        0.0%
BITBANK5            50      0       0      14        0.0%
BITSFR13             0      0       0      14        0.0%
SFR13                0      0       0      14        0.0%
BANK5               50      0       0      15        0.0%
BITSFR14             0      0       0      15        0.0%
SFR14                0      0       0      15        0.0%
BITBANK6            50      0       0      16        0.0%
BITSFR15             0      0       0      16        0.0%
SFR15                0      0       0      16        0.0%
BANK6               50      0       0      17        0.0%
BITSFR16             0      0       0      17        0.0%
SFR16                0      0       0      17        0.0%
BITBANK7            50      0       0      18        0.0%
BITSFR17             0      0       0      18        0.0%
SFR17                0      0       0      18        0.0%
BANK7               50      0       0      19        0.0%
BITSFR18             0      0       0      19        0.0%
SFR18                0      0       0      19        0.0%
BITSFR19             0      0       0      20        0.0%
SFR19                0      0       0      20        0.0%
ABS                  0      0       0      20        0.0%
BITBANK8            50      0       0      21        0.0%
BITSFR20             0      0       0      21        0.0%
SFR20                0      0       0      21        0.0%
BANK8               50      0       0      22        0.0%
BITSFR21             0      0       0      22        0.0%
SFR21                0      0       0      22        0.0%
BITBANK9            50      0       0      23        0.0%
BITSFR22             0      0       0      23        0.0%
SFR22                0      0       0      23        0.0%
BANK9               50      0       0      24        0.0%
BITSFR23             0      0       0      24        0.0%
SFR23                0      0       0      24        0.0%
BITBANK10           50      0       0      25        0.0%
BITSFR24             0      0       0      25        0.0%
SFR24                0      0       0      25        0.0%
BANK10              50      0       0      26        0.0%
BITSFR25             0      0       0      26        0.0%
SFR25                0      0       0      26        0.0%
BITBANK11           50      0       0      27        0.0%
BITSFR26             0      0       0      27        0.0%
SFR26                0      0       0      27        0.0%
BANK11              50      0       0      28        0.0%
BITSFR27             0      0       0      28        0.0%
SFR27                0      0       0      28        0.0%
BITBANK12           30      0       0      29        0.0%
BITSFR28             0      0       0      29        0.0%
SFR28                0      0       0      29        0.0%
BANK12              30      0       0      30        0.0%
BITSFR29             0      0       0      30        0.0%
SFR29                0      0       0      30        0.0%
BITSFR30             0      0       0      31        0.0%
SFR30                0      0       0      31        0.0%
DATA                 0      0       0      31        0.0%
BITSFR31             0      0       0      32        0.0%
SFR31                0      0       0      32        0.0%


Microchip Technology PIC Macro Assembler V1.33 build 59893 
Symbol Table                                                                                   Fri Feb 20 16:45:08 2015

            __CFG_CP$OFF 0000              _SSPSTATbits 0214                       l38 04C2  
                     l64 05A8                      l700 0673                      l702 0689  
                    l800 0603                      l734 0768                      l718 0722  
                    l752 07F3                      l728 075B                      l682 058D  
                    l828 04D5                      l794 05EA                      u220 0655  
                    u205 05E8                      u135 0593                      u215 0601  
                    u237 04E3                      u190 05D3                      u247 066E  
                    u257 0683                      u267 07F6                      _spi 04BD  
           __CFG_BORV$LO 0000             __CFG_LVP$OFF 0000                     ?_spi 0070  
           __CFG_WRT$OFF 0000                     _main 04D2                     fsr0h 0005  
                   fsr1h 0007                     fsr0l 0004                     fsr1l 0006  
                   btemp 007E                     ltemp 007E                     start 0002  
                   ttemp 007E                     wtemp 007E            __CFG_IESO$OFF 0000  
                  ??_spi 0072    __size_of_wiz_reg_read 0037                    ?_main 0058  
          __CFG_WDTE$OFF 0000           __CFG_FCMEN$OFF 0000           __CFG_BOREN$OFF 0000  
                  ltemp0 007E                    ltemp1 0082                    ltemp2 0086  
                  ltemp3 0080                    ttemp0 007E                    ttemp1 0081  
                  ttemp2 0084                    ttemp3 0087                    ttemp4 007F  
                  wtemp0 007E                    wtemp1 0080                    wtemp2 0082  
                  wtemp3 0084                    wtemp4 0086                    wtemp5 0088  
                  wtemp6 007F             _wiz_reg_read 052F           __CFG_MCLRE$OFF 0000  
        __initialization 07FC           config@spi_conf 00A2             __end_of_main 04E7  
         config@wiz_conf 00AC           __CFG_LPBOR$OFF 0000                   ??_main 005C  
       wiz_write@addr_hi 0076         wiz_write@addr_lo 0078      __CFG_USBLSCLK$48MHz 0000  
 __size_of_wiz_reg_write 002D                   _SSPBUF 0211            spi_setup@conf 0070  
         __CFG_PWRTE$OFF 0000           __CFG_STVREN$ON 0000                   _config 05AB  
       __end_of_wiz_init 07FC  __end_of__initialization 07FC            _wiz_reg_write 0502  
         __pcstackCOMMON 0070      wiz_reg_read@addr_hi 0076      wiz_reg_read@addr_lo 0078  
       wiz_reg_read@miso 007A           ?_wiz_reg_write 0076               __pmaintext 04D2  
        __CFG_PLLMULT$3x 0000                  ?_config 0070       __size_of_spi_setup 001B  
           wiz_init@conf 0022             wiz_init@sock 0055       __size_of_wiz_write 0045  
        __size_of_config 00B1                ?_wiz_init 0022                  __ptext0 0000  
                __ptext1 05AB                  __ptext2 065C                  __ptext3 0566  
                __ptext4 0502                  __ptext5 052F                  __ptext6 04BD  
                __ptext7 04E7             __size_of_spi 0015                  config@i 00A0  
   end_of_initialization 07FC          ??_wiz_reg_write 007C         __CFG_CLKOUTEN$ON 0000  
                spi@miso 0074                  spi@mosi 0070        __end_of_spi_setup 0502  
             ??_wiz_init 0052        __end_of_wiz_write 05AB         __CFG_FOSC$INTOSC 0000  
              _TRISAbits 008C                _TRISCbits 008E       __CFG_PLLEN$ENABLED 0000  
         __end_of_config 065C      start_initialization 07FC              __end_of_spi 04D2  
        wiz_write@length 007B                 ??_config 0057                ___latbits 0002  
          __pcstackBANK0 0020            __pcstackBANK1 00A0            ?_wiz_reg_read 0076  
      __size_of_wiz_init 01A0     wiz_reg_write@addr_hi 0076     wiz_reg_write@addr_lo 0078  
      wiz_reg_write@mosi 007A                 _LATCbits 010E           ??_wiz_reg_read 007A  
               _PIR1bits 0011                _spi_setup 04E7                _wiz_write 0566  
  __end_of_wiz_reg_write 052F               ?_spi_setup 0070               ?_wiz_write 0076  
          __size_of_main 0015               wiz_write@i 0020                 main@argc 0058  
               main@argv 005A                 _wiz_init 065C     __end_of_wiz_reg_read 0566  
          wiz_write@mosi 007A              pic14e$flags 007E                wiz_init@i 0053  
             _OSCCONbits 0099     __CFG_CPUDIV$NOCLKDIV 0000              ??_spi_setup 007A  
            ??_wiz_write 007D               _SSPCONbits 0215  
